
ChaseMe0x03:     file format elf64-x86-64


Disassembly of section .init:

00000000004014c0 <.init>:
  4014c0:	48 83 ec 08          	sub    $0x8,%rsp
  4014c4:	48 8b 05 7d 60 20 00 	mov    0x20607d(%rip),%rax        # 607548 <dlerror@plt+0x205c08>
  4014cb:	48 85 c0             	test   %rax,%rax
  4014ce:	74 05                	je     4014d5 <__strcat_chk@plt-0x1b>
  4014d0:	e8 7b 02 00 00       	call   401750 <__gmon_start__@plt>
  4014d5:	48 83 c4 08          	add    $0x8,%rsp
  4014d9:	c3                   	ret    

Disassembly of section .plt:

00000000004014e0 <__strcat_chk@plt-0x10>:
  4014e0:	ff 35 72 60 20 00    	push   0x206072(%rip)        # 607558 <dlerror@plt+0x205c18>
  4014e6:	ff 25 74 60 20 00    	jmp    *0x206074(%rip)        # 607560 <dlerror@plt+0x205c20>
  4014ec:	0f 1f 40 00          	nopl   0x0(%rax)

00000000004014f0 <__strcat_chk@plt>:
  4014f0:	ff 25 72 60 20 00    	jmp    *0x206072(%rip)        # 607568 <dlerror@plt+0x205c28>
  4014f6:	68 00 00 00 00       	push   $0x0
  4014fb:	e9 e0 ff ff ff       	jmp    4014e0 <__strcat_chk@plt-0x10>

0000000000401500 <getenv@plt>:
  401500:	ff 25 6a 60 20 00    	jmp    *0x20606a(%rip)        # 607570 <dlerror@plt+0x205c30>
  401506:	68 01 00 00 00       	push   $0x1
  40150b:	e9 d0 ff ff ff       	jmp    4014e0 <__strcat_chk@plt-0x10>

0000000000401510 <__snprintf_chk@plt>:
  401510:	ff 25 62 60 20 00    	jmp    *0x206062(%rip)        # 607578 <dlerror@plt+0x205c38>
  401516:	68 02 00 00 00       	push   $0x2
  40151b:	e9 c0 ff ff ff       	jmp    4014e0 <__strcat_chk@plt-0x10>

0000000000401520 <raise@plt>:
  401520:	ff 25 5a 60 20 00    	jmp    *0x20605a(%rip)        # 607580 <dlerror@plt+0x205c40>
  401526:	68 03 00 00 00       	push   $0x3
  40152b:	e9 b0 ff ff ff       	jmp    4014e0 <__strcat_chk@plt-0x10>

0000000000401530 <free@plt>:
  401530:	ff 25 52 60 20 00    	jmp    *0x206052(%rip)        # 607588 <dlerror@plt+0x205c48>
  401536:	68 04 00 00 00       	push   $0x4
  40153b:	e9 a0 ff ff ff       	jmp    4014e0 <__strcat_chk@plt-0x10>

0000000000401540 <__vfprintf_chk@plt>:
  401540:	ff 25 4a 60 20 00    	jmp    *0x20604a(%rip)        # 607590 <dlerror@plt+0x205c50>
  401546:	68 05 00 00 00       	push   $0x5
  40154b:	e9 90 ff ff ff       	jmp    4014e0 <__strcat_chk@plt-0x10>

0000000000401550 <unlink@plt>:
  401550:	ff 25 42 60 20 00    	jmp    *0x206042(%rip)        # 607598 <dlerror@plt+0x205c58>
  401556:	68 06 00 00 00       	push   $0x6
  40155b:	e9 80 ff ff ff       	jmp    4014e0 <__strcat_chk@plt-0x10>

0000000000401560 <strncpy@plt>:
  401560:	ff 25 3a 60 20 00    	jmp    *0x20603a(%rip)        # 6075a0 <dlerror@plt+0x205c60>
  401566:	68 07 00 00 00       	push   $0x7
  40156b:	e9 70 ff ff ff       	jmp    4014e0 <__strcat_chk@plt-0x10>

0000000000401570 <strncmp@plt>:
  401570:	ff 25 32 60 20 00    	jmp    *0x206032(%rip)        # 6075a8 <dlerror@plt+0x205c68>
  401576:	68 08 00 00 00       	push   $0x8
  40157b:	e9 60 ff ff ff       	jmp    4014e0 <__strcat_chk@plt-0x10>

0000000000401580 <strcpy@plt>:
  401580:	ff 25 2a 60 20 00    	jmp    *0x20602a(%rip)        # 6075b0 <dlerror@plt+0x205c70>
  401586:	68 09 00 00 00       	push   $0x9
  40158b:	e9 50 ff ff ff       	jmp    4014e0 <__strcat_chk@plt-0x10>

0000000000401590 <inflate@plt>:
  401590:	ff 25 22 60 20 00    	jmp    *0x206022(%rip)        # 6075b8 <dlerror@plt+0x205c78>
  401596:	68 0a 00 00 00       	push   $0xa
  40159b:	e9 40 ff ff ff       	jmp    4014e0 <__strcat_chk@plt-0x10>

00000000004015a0 <mkdir@plt>:
  4015a0:	ff 25 1a 60 20 00    	jmp    *0x20601a(%rip)        # 6075c0 <dlerror@plt+0x205c80>
  4015a6:	68 0b 00 00 00       	push   $0xb
  4015ab:	e9 30 ff ff ff       	jmp    4014e0 <__strcat_chk@plt-0x10>

00000000004015b0 <ferror@plt>:
  4015b0:	ff 25 12 60 20 00    	jmp    *0x206012(%rip)        # 6075c8 <dlerror@plt+0x205c88>
  4015b6:	68 0c 00 00 00       	push   $0xc
  4015bb:	e9 20 ff ff ff       	jmp    4014e0 <__strcat_chk@plt-0x10>

00000000004015c0 <fread@plt>:
  4015c0:	ff 25 0a 60 20 00    	jmp    *0x20600a(%rip)        # 6075d0 <dlerror@plt+0x205c90>
  4015c6:	68 0d 00 00 00       	push   $0xd
  4015cb:	e9 10 ff ff ff       	jmp    4014e0 <__strcat_chk@plt-0x10>

00000000004015d0 <mbstowcs@plt>:
  4015d0:	ff 25 02 60 20 00    	jmp    *0x206002(%rip)        # 6075d8 <dlerror@plt+0x205c98>
  4015d6:	68 0e 00 00 00       	push   $0xe
  4015db:	e9 00 ff ff ff       	jmp    4014e0 <__strcat_chk@plt-0x10>

00000000004015e0 <setenv@plt>:
  4015e0:	ff 25 fa 5f 20 00    	jmp    *0x205ffa(%rip)        # 6075e0 <dlerror@plt+0x205ca0>
  4015e6:	68 0f 00 00 00       	push   $0xf
  4015eb:	e9 f0 fe ff ff       	jmp    4014e0 <__strcat_chk@plt-0x10>

00000000004015f0 <getpid@plt>:
  4015f0:	ff 25 f2 5f 20 00    	jmp    *0x205ff2(%rip)        # 6075e8 <dlerror@plt+0x205ca8>
  4015f6:	68 10 00 00 00       	push   $0x10
  4015fb:	e9 e0 fe ff ff       	jmp    4014e0 <__strcat_chk@plt-0x10>

0000000000401600 <fclose@plt>:
  401600:	ff 25 ea 5f 20 00    	jmp    *0x205fea(%rip)        # 6075f0 <dlerror@plt+0x205cb0>
  401606:	68 11 00 00 00       	push   $0x11
  40160b:	e9 d0 fe ff ff       	jmp    4014e0 <__strcat_chk@plt-0x10>

0000000000401610 <opendir@plt>:
  401610:	ff 25 e2 5f 20 00    	jmp    *0x205fe2(%rip)        # 6075f8 <dlerror@plt+0x205cb8>
  401616:	68 12 00 00 00       	push   $0x12
  40161b:	e9 c0 fe ff ff       	jmp    4014e0 <__strcat_chk@plt-0x10>

0000000000401620 <stpcpy@plt>:
  401620:	ff 25 da 5f 20 00    	jmp    *0x205fda(%rip)        # 607600 <dlerror@plt+0x205cc0>
  401626:	68 13 00 00 00       	push   $0x13
  40162b:	e9 b0 fe ff ff       	jmp    4014e0 <__strcat_chk@plt-0x10>

0000000000401630 <rmdir@plt>:
  401630:	ff 25 d2 5f 20 00    	jmp    *0x205fd2(%rip)        # 607608 <dlerror@plt+0x205cc8>
  401636:	68 14 00 00 00       	push   $0x14
  40163b:	e9 a0 fe ff ff       	jmp    4014e0 <__strcat_chk@plt-0x10>

0000000000401640 <strlen@plt>:
  401640:	ff 25 ca 5f 20 00    	jmp    *0x205fca(%rip)        # 607610 <dlerror@plt+0x205cd0>
  401646:	68 15 00 00 00       	push   $0x15
  40164b:	e9 90 fe ff ff       	jmp    4014e0 <__strcat_chk@plt-0x10>

0000000000401650 <setbuf@plt>:
  401650:	ff 25 c2 5f 20 00    	jmp    *0x205fc2(%rip)        # 607618 <dlerror@plt+0x205cd8>
  401656:	68 16 00 00 00       	push   $0x16
  40165b:	e9 80 fe ff ff       	jmp    4014e0 <__strcat_chk@plt-0x10>

0000000000401660 <strchr@plt>:
  401660:	ff 25 ba 5f 20 00    	jmp    *0x205fba(%rip)        # 607620 <dlerror@plt+0x205ce0>
  401666:	68 17 00 00 00       	push   $0x17
  40166b:	e9 70 fe ff ff       	jmp    4014e0 <__strcat_chk@plt-0x10>

0000000000401670 <snprintf@plt>:
  401670:	ff 25 b2 5f 20 00    	jmp    *0x205fb2(%rip)        # 607628 <dlerror@plt+0x205ce8>
  401676:	68 18 00 00 00       	push   $0x18
  40167b:	e9 60 fe ff ff       	jmp    4014e0 <__strcat_chk@plt-0x10>

0000000000401680 <dirname@plt>:
  401680:	ff 25 aa 5f 20 00    	jmp    *0x205faa(%rip)        # 607630 <dlerror@plt+0x205cf0>
  401686:	68 19 00 00 00       	push   $0x19
  40168b:	e9 50 fe ff ff       	jmp    4014e0 <__strcat_chk@plt-0x10>

0000000000401690 <strncat@plt>:
  401690:	ff 25 a2 5f 20 00    	jmp    *0x205fa2(%rip)        # 607638 <dlerror@plt+0x205cf8>
  401696:	68 1a 00 00 00       	push   $0x1a
  40169b:	e9 40 fe ff ff       	jmp    4014e0 <__strcat_chk@plt-0x10>

00000000004016a0 <__realpath_chk@plt>:
  4016a0:	ff 25 9a 5f 20 00    	jmp    *0x205f9a(%rip)        # 607640 <dlerror@plt+0x205d00>
  4016a6:	68 1b 00 00 00       	push   $0x1b
  4016ab:	e9 30 fe ff ff       	jmp    4014e0 <__strcat_chk@plt-0x10>

00000000004016b0 <closedir@plt>:
  4016b0:	ff 25 92 5f 20 00    	jmp    *0x205f92(%rip)        # 607648 <dlerror@plt+0x205d08>
  4016b6:	68 1c 00 00 00       	push   $0x1c
  4016bb:	e9 20 fe ff ff       	jmp    4014e0 <__strcat_chk@plt-0x10>

00000000004016c0 <__strdup@plt>:
  4016c0:	ff 25 8a 5f 20 00    	jmp    *0x205f8a(%rip)        # 607650 <dlerror@plt+0x205d10>
  4016c6:	68 1d 00 00 00       	push   $0x1d
  4016cb:	e9 10 fe ff ff       	jmp    4014e0 <__strcat_chk@plt-0x10>

00000000004016d0 <__libc_start_main@plt>:
  4016d0:	ff 25 82 5f 20 00    	jmp    *0x205f82(%rip)        # 607658 <dlerror@plt+0x205d18>
  4016d6:	68 1e 00 00 00       	push   $0x1e
  4016db:	e9 00 fe ff ff       	jmp    4014e0 <__strcat_chk@plt-0x10>

00000000004016e0 <wcsncpy@plt>:
  4016e0:	ff 25 7a 5f 20 00    	jmp    *0x205f7a(%rip)        # 607660 <dlerror@plt+0x205d20>
  4016e6:	68 1f 00 00 00       	push   $0x1f
  4016eb:	e9 f0 fd ff ff       	jmp    4014e0 <__strcat_chk@plt-0x10>

00000000004016f0 <calloc@plt>:
  4016f0:	ff 25 72 5f 20 00    	jmp    *0x205f72(%rip)        # 607668 <dlerror@plt+0x205d28>
  4016f6:	68 20 00 00 00       	push   $0x20
  4016fb:	e9 e0 fd ff ff       	jmp    4014e0 <__strcat_chk@plt-0x10>

0000000000401700 <strcmp@plt>:
  401700:	ff 25 6a 5f 20 00    	jmp    *0x205f6a(%rip)        # 607670 <dlerror@plt+0x205d30>
  401706:	68 21 00 00 00       	push   $0x21
  40170b:	e9 d0 fd ff ff       	jmp    4014e0 <__strcat_chk@plt-0x10>

0000000000401710 <signal@plt>:
  401710:	ff 25 62 5f 20 00    	jmp    *0x205f62(%rip)        # 607678 <dlerror@plt+0x205d38>
  401716:	68 22 00 00 00       	push   $0x22
  40171b:	e9 c0 fd ff ff       	jmp    4014e0 <__strcat_chk@plt-0x10>

0000000000401720 <__memcpy_chk@plt>:
  401720:	ff 25 5a 5f 20 00    	jmp    *0x205f5a(%rip)        # 607680 <dlerror@plt+0x205d40>
  401726:	68 23 00 00 00       	push   $0x23
  40172b:	e9 b0 fd ff ff       	jmp    4014e0 <__strcat_chk@plt-0x10>

0000000000401730 <ftell@plt>:
  401730:	ff 25 52 5f 20 00    	jmp    *0x205f52(%rip)        # 607688 <dlerror@plt+0x205d48>
  401736:	68 24 00 00 00       	push   $0x24
  40173b:	e9 a0 fd ff ff       	jmp    4014e0 <__strcat_chk@plt-0x10>

0000000000401740 <feof@plt>:
  401740:	ff 25 4a 5f 20 00    	jmp    *0x205f4a(%rip)        # 607690 <dlerror@plt+0x205d50>
  401746:	68 25 00 00 00       	push   $0x25
  40174b:	e9 90 fd ff ff       	jmp    4014e0 <__strcat_chk@plt-0x10>

0000000000401750 <__gmon_start__@plt>:
  401750:	ff 25 42 5f 20 00    	jmp    *0x205f42(%rip)        # 607698 <dlerror@plt+0x205d58>
  401756:	68 26 00 00 00       	push   $0x26
  40175b:	e9 80 fd ff ff       	jmp    4014e0 <__strcat_chk@plt-0x10>

0000000000401760 <clearerr@plt>:
  401760:	ff 25 3a 5f 20 00    	jmp    *0x205f3a(%rip)        # 6076a0 <dlerror@plt+0x205d60>
  401766:	68 27 00 00 00       	push   $0x27
  40176b:	e9 70 fd ff ff       	jmp    4014e0 <__strcat_chk@plt-0x10>

0000000000401770 <realpath@plt>:
  401770:	ff 25 32 5f 20 00    	jmp    *0x205f32(%rip)        # 6076a8 <dlerror@plt+0x205d68>
  401776:	68 28 00 00 00       	push   $0x28
  40177b:	e9 60 fd ff ff       	jmp    4014e0 <__strcat_chk@plt-0x10>

0000000000401780 <inflateEnd@plt>:
  401780:	ff 25 2a 5f 20 00    	jmp    *0x205f2a(%rip)        # 6076b0 <dlerror@plt+0x205d70>
  401786:	68 29 00 00 00       	push   $0x29
  40178b:	e9 50 fd ff ff       	jmp    4014e0 <__strcat_chk@plt-0x10>

0000000000401790 <kill@plt>:
  401790:	ff 25 22 5f 20 00    	jmp    *0x205f22(%rip)        # 6076b8 <dlerror@plt+0x205d78>
  401796:	68 2a 00 00 00       	push   $0x2a
  40179b:	e9 40 fd ff ff       	jmp    4014e0 <__strcat_chk@plt-0x10>

00000000004017a0 <__xpg_basename@plt>:
  4017a0:	ff 25 1a 5f 20 00    	jmp    *0x205f1a(%rip)        # 6076c0 <dlerror@plt+0x205d80>
  4017a6:	68 2b 00 00 00       	push   $0x2b
  4017ab:	e9 30 fd ff ff       	jmp    4014e0 <__strcat_chk@plt-0x10>

00000000004017b0 <fileno@plt>:
  4017b0:	ff 25 12 5f 20 00    	jmp    *0x205f12(%rip)        # 6076c8 <dlerror@plt+0x205d88>
  4017b6:	68 2c 00 00 00       	push   $0x2c
  4017bb:	e9 20 fd ff ff       	jmp    4014e0 <__strcat_chk@plt-0x10>

00000000004017c0 <__xstat@plt>:
  4017c0:	ff 25 0a 5f 20 00    	jmp    *0x205f0a(%rip)        # 6076d0 <dlerror@plt+0x205d90>
  4017c6:	68 2d 00 00 00       	push   $0x2d
  4017cb:	e9 10 fd ff ff       	jmp    4014e0 <__strcat_chk@plt-0x10>

00000000004017d0 <readdir@plt>:
  4017d0:	ff 25 02 5f 20 00    	jmp    *0x205f02(%rip)        # 6076d8 <dlerror@plt+0x205d98>
  4017d6:	68 2e 00 00 00       	push   $0x2e
  4017db:	e9 00 fd ff ff       	jmp    4014e0 <__strcat_chk@plt-0x10>

00000000004017e0 <dlopen@plt>:
  4017e0:	ff 25 fa 5e 20 00    	jmp    *0x205efa(%rip)        # 6076e0 <dlerror@plt+0x205da0>
  4017e6:	68 2f 00 00 00       	push   $0x2f
  4017eb:	e9 f0 fc ff ff       	jmp    4014e0 <__strcat_chk@plt-0x10>

00000000004017f0 <malloc@plt>:
  4017f0:	ff 25 f2 5e 20 00    	jmp    *0x205ef2(%rip)        # 6076e8 <dlerror@plt+0x205da8>
  4017f6:	68 30 00 00 00       	push   $0x30
  4017fb:	e9 e0 fc ff ff       	jmp    4014e0 <__strcat_chk@plt-0x10>

0000000000401800 <fflush@plt>:
  401800:	ff 25 ea 5e 20 00    	jmp    *0x205eea(%rip)        # 6076f0 <dlerror@plt+0x205db0>
  401806:	68 31 00 00 00       	push   $0x31
  40180b:	e9 d0 fc ff ff       	jmp    4014e0 <__strcat_chk@plt-0x10>

0000000000401810 <nl_langinfo@plt>:
  401810:	ff 25 e2 5e 20 00    	jmp    *0x205ee2(%rip)        # 6076f8 <dlerror@plt+0x205db8>
  401816:	68 32 00 00 00       	push   $0x32
  40181b:	e9 c0 fc ff ff       	jmp    4014e0 <__strcat_chk@plt-0x10>

0000000000401820 <fseek@plt>:
  401820:	ff 25 da 5e 20 00    	jmp    *0x205eda(%rip)        # 607700 <dlerror@plt+0x205dc0>
  401826:	68 33 00 00 00       	push   $0x33
  40182b:	e9 b0 fc ff ff       	jmp    4014e0 <__strcat_chk@plt-0x10>

0000000000401830 <__vsnprintf_chk@plt>:
  401830:	ff 25 d2 5e 20 00    	jmp    *0x205ed2(%rip)        # 607708 <dlerror@plt+0x205dc8>
  401836:	68 34 00 00 00       	push   $0x34
  40183b:	e9 a0 fc ff ff       	jmp    4014e0 <__strcat_chk@plt-0x10>

0000000000401840 <__strcpy_chk@plt>:
  401840:	ff 25 ca 5e 20 00    	jmp    *0x205eca(%rip)        # 607710 <dlerror@plt+0x205dd0>
  401846:	68 35 00 00 00       	push   $0x35
  40184b:	e9 90 fc ff ff       	jmp    4014e0 <__strcat_chk@plt-0x10>

0000000000401850 <mkdtemp@plt>:
  401850:	ff 25 c2 5e 20 00    	jmp    *0x205ec2(%rip)        # 607718 <dlerror@plt+0x205dd8>
  401856:	68 36 00 00 00       	push   $0x36
  40185b:	e9 80 fc ff ff       	jmp    4014e0 <__strcat_chk@plt-0x10>

0000000000401860 <setlocale@plt>:
  401860:	ff 25 ba 5e 20 00    	jmp    *0x205eba(%rip)        # 607720 <dlerror@plt+0x205de0>
  401866:	68 37 00 00 00       	push   $0x37
  40186b:	e9 70 fc ff ff       	jmp    4014e0 <__strcat_chk@plt-0x10>

0000000000401870 <fchmod@plt>:
  401870:	ff 25 b2 5e 20 00    	jmp    *0x205eb2(%rip)        # 607728 <dlerror@plt+0x205de8>
  401876:	68 38 00 00 00       	push   $0x38
  40187b:	e9 60 fc ff ff       	jmp    4014e0 <__strcat_chk@plt-0x10>

0000000000401880 <inflateInit_@plt>:
  401880:	ff 25 aa 5e 20 00    	jmp    *0x205eaa(%rip)        # 607730 <dlerror@plt+0x205df0>
  401886:	68 39 00 00 00       	push   $0x39
  40188b:	e9 50 fc ff ff       	jmp    4014e0 <__strcat_chk@plt-0x10>

0000000000401890 <waitpid@plt>:
  401890:	ff 25 a2 5e 20 00    	jmp    *0x205ea2(%rip)        # 607738 <dlerror@plt+0x205df8>
  401896:	68 3a 00 00 00       	push   $0x3a
  40189b:	e9 40 fc ff ff       	jmp    4014e0 <__strcat_chk@plt-0x10>

00000000004018a0 <fopen@plt>:
  4018a0:	ff 25 9a 5e 20 00    	jmp    *0x205e9a(%rip)        # 607740 <dlerror@plt+0x205e00>
  4018a6:	68 3b 00 00 00       	push   $0x3b
  4018ab:	e9 30 fc ff ff       	jmp    4014e0 <__strcat_chk@plt-0x10>

00000000004018b0 <perror@plt>:
  4018b0:	ff 25 92 5e 20 00    	jmp    *0x205e92(%rip)        # 607748 <dlerror@plt+0x205e08>
  4018b6:	68 3c 00 00 00       	push   $0x3c
  4018bb:	e9 20 fc ff ff       	jmp    4014e0 <__strcat_chk@plt-0x10>

00000000004018c0 <strtok@plt>:
  4018c0:	ff 25 8a 5e 20 00    	jmp    *0x205e8a(%rip)        # 607750 <dlerror@plt+0x205e10>
  4018c6:	68 3d 00 00 00       	push   $0x3d
  4018cb:	e9 10 fc ff ff       	jmp    4014e0 <__strcat_chk@plt-0x10>

00000000004018d0 <unsetenv@plt>:
  4018d0:	ff 25 82 5e 20 00    	jmp    *0x205e82(%rip)        # 607758 <dlerror@plt+0x205e18>
  4018d6:	68 3e 00 00 00       	push   $0x3e
  4018db:	e9 00 fc ff ff       	jmp    4014e0 <__strcat_chk@plt-0x10>

00000000004018e0 <execvp@plt>:
  4018e0:	ff 25 7a 5e 20 00    	jmp    *0x205e7a(%rip)        # 607760 <dlerror@plt+0x205e20>
  4018e6:	68 3f 00 00 00       	push   $0x3f
  4018eb:	e9 f0 fb ff ff       	jmp    4014e0 <__strcat_chk@plt-0x10>

00000000004018f0 <strcat@plt>:
  4018f0:	ff 25 72 5e 20 00    	jmp    *0x205e72(%rip)        # 607768 <dlerror@plt+0x205e28>
  4018f6:	68 40 00 00 00       	push   $0x40
  4018fb:	e9 e0 fb ff ff       	jmp    4014e0 <__strcat_chk@plt-0x10>

0000000000401900 <fwrite@plt>:
  401900:	ff 25 6a 5e 20 00    	jmp    *0x205e6a(%rip)        # 607770 <dlerror@plt+0x205e30>
  401906:	68 41 00 00 00       	push   $0x41
  40190b:	e9 d0 fb ff ff       	jmp    4014e0 <__strcat_chk@plt-0x10>

0000000000401910 <__fprintf_chk@plt>:
  401910:	ff 25 62 5e 20 00    	jmp    *0x205e62(%rip)        # 607778 <dlerror@plt+0x205e38>
  401916:	68 42 00 00 00       	push   $0x42
  40191b:	e9 c0 fb ff ff       	jmp    4014e0 <__strcat_chk@plt-0x10>

0000000000401920 <dlsym@plt>:
  401920:	ff 25 5a 5e 20 00    	jmp    *0x205e5a(%rip)        # 607780 <dlerror@plt+0x205e40>
  401926:	68 43 00 00 00       	push   $0x43
  40192b:	e9 b0 fb ff ff       	jmp    4014e0 <__strcat_chk@plt-0x10>

0000000000401930 <fork@plt>:
  401930:	ff 25 52 5e 20 00    	jmp    *0x205e52(%rip)        # 607788 <dlerror@plt+0x205e48>
  401936:	68 44 00 00 00       	push   $0x44
  40193b:	e9 a0 fb ff ff       	jmp    4014e0 <__strcat_chk@plt-0x10>

0000000000401940 <dlerror@plt>:
  401940:	ff 25 4a 5e 20 00    	jmp    *0x205e4a(%rip)        # 607790 <dlerror@plt+0x205e50>
  401946:	68 45 00 00 00       	push   $0x45
  40194b:	e9 90 fb ff ff       	jmp    4014e0 <__strcat_chk@plt-0x10>

Disassembly of section .text:

0000000000401950 <.text>:
  401950:	e9 9b 14 00 00       	jmp    402df0 <dlerror@plt+0x14b0>
  401955:	31 ed                	xor    %ebp,%ebp
  401957:	49 89 d1             	mov    %rdx,%r9
  40195a:	5e                   	pop    %rsi
  40195b:	48 89 e2             	mov    %rsp,%rdx
  40195e:	48 83 e4 f0          	and    $0xfffffffffffffff0,%rsp
  401962:	50                   	push   %rax
  401963:	54                   	push   %rsp
  401964:	49 c7 c0 20 4f 40 00 	mov    $0x404f20,%r8
  40196b:	48 c7 c1 b0 4e 40 00 	mov    $0x404eb0,%rcx
  401972:	48 c7 c7 50 19 40 00 	mov    $0x401950,%rdi
  401979:	e8 52 fd ff ff       	call   4016d0 <__libc_start_main@plt>
  40197e:	f4                   	hlt    
  40197f:	90                   	nop
  401980:	b8 af 77 60 00       	mov    $0x6077af,%eax
  401985:	55                   	push   %rbp
  401986:	48 2d a8 77 60 00    	sub    $0x6077a8,%rax
  40198c:	48 83 f8 0e          	cmp    $0xe,%rax
  401990:	48 89 e5             	mov    %rsp,%rbp
  401993:	76 1b                	jbe    4019b0 <dlerror@plt+0x70>
  401995:	b8 00 00 00 00       	mov    $0x0,%eax
  40199a:	48 85 c0             	test   %rax,%rax
  40199d:	74 11                	je     4019b0 <dlerror@plt+0x70>
  40199f:	5d                   	pop    %rbp
  4019a0:	bf a8 77 60 00       	mov    $0x6077a8,%edi
  4019a5:	ff e0                	jmp    *%rax
  4019a7:	66 0f 1f 84 00 00 00 	nopw   0x0(%rax,%rax,1)
  4019ae:	00 00 
  4019b0:	5d                   	pop    %rbp
  4019b1:	c3                   	ret    
  4019b2:	66 66 66 66 66 2e 0f 	data16 data16 data16 data16 cs nopw 0x0(%rax,%rax,1)
  4019b9:	1f 84 00 00 00 00 00 
  4019c0:	be a8 77 60 00       	mov    $0x6077a8,%esi
  4019c5:	55                   	push   %rbp
  4019c6:	48 81 ee a8 77 60 00 	sub    $0x6077a8,%rsi
  4019cd:	48 c1 fe 03          	sar    $0x3,%rsi
  4019d1:	48 89 e5             	mov    %rsp,%rbp
  4019d4:	48 89 f0             	mov    %rsi,%rax
  4019d7:	48 c1 e8 3f          	shr    $0x3f,%rax
  4019db:	48 01 c6             	add    %rax,%rsi
  4019de:	48 d1 fe             	sar    %rsi
  4019e1:	74 15                	je     4019f8 <dlerror@plt+0xb8>
  4019e3:	b8 00 00 00 00       	mov    $0x0,%eax
  4019e8:	48 85 c0             	test   %rax,%rax
  4019eb:	74 0b                	je     4019f8 <dlerror@plt+0xb8>
  4019ed:	5d                   	pop    %rbp
  4019ee:	bf a8 77 60 00       	mov    $0x6077a8,%edi
  4019f3:	ff e0                	jmp    *%rax
  4019f5:	0f 1f 00             	nopl   (%rax)
  4019f8:	5d                   	pop    %rbp
  4019f9:	c3                   	ret    
  4019fa:	66 0f 1f 44 00 00    	nopw   0x0(%rax,%rax,1)
  401a00:	80 3d d1 5d 20 00 00 	cmpb   $0x0,0x205dd1(%rip)        # 6077d8 <stderr@GLIBC_2.2.5+0x8>
  401a07:	75 11                	jne    401a1a <dlerror@plt+0xda>
  401a09:	55                   	push   %rbp
  401a0a:	48 89 e5             	mov    %rsp,%rbp
  401a0d:	e8 6e ff ff ff       	call   401980 <dlerror@plt+0x40>
  401a12:	5d                   	pop    %rbp
  401a13:	c6 05 be 5d 20 00 01 	movb   $0x1,0x205dbe(%rip)        # 6077d8 <stderr@GLIBC_2.2.5+0x8>
  401a1a:	f3 c3                	repz ret 
  401a1c:	0f 1f 40 00          	nopl   0x0(%rax)
  401a20:	bf 50 73 60 00       	mov    $0x607350,%edi
  401a25:	48 83 3f 00          	cmpq   $0x0,(%rdi)
  401a29:	75 05                	jne    401a30 <dlerror@plt+0xf0>
  401a2b:	eb 93                	jmp    4019c0 <dlerror@plt+0x80>
  401a2d:	0f 1f 00             	nopl   (%rax)
  401a30:	b8 00 00 00 00       	mov    $0x0,%eax
  401a35:	48 85 c0             	test   %rax,%rax
  401a38:	74 f1                	je     401a2b <dlerror@plt+0xeb>
  401a3a:	55                   	push   %rbp
  401a3b:	48 89 e5             	mov    %rsp,%rbp
  401a3e:	ff d0                	call   *%rax
  401a40:	5d                   	pop    %rbp
  401a41:	e9 7a ff ff ff       	jmp    4019c0 <dlerror@plt+0x80>
  401a46:	66 2e 0f 1f 84 00 00 	cs nopw 0x0(%rax,%rax,1)
  401a4d:	00 00 00 
  401a50:	41 54                	push   %r12
  401a52:	55                   	push   %rbp
  401a53:	48 89 fd             	mov    %rdi,%rbp
  401a56:	53                   	push   %rbx
  401a57:	89 f3                	mov    %esi,%ebx
  401a59:	8d b6 a8 ef ff ff    	lea    -0x1058(%rsi),%esi
  401a5f:	31 d2                	xor    %edx,%edx
  401a61:	48 81 ec 60 10 00 00 	sub    $0x1060,%rsp
  401a68:	48 8b 3f             	mov    (%rdi),%rdi
  401a6b:	48 63 f6             	movslq %esi,%rsi
  401a6e:	e8 ad fd ff ff       	call   401820 <fseek@plt>
  401a73:	85 c0                	test   %eax,%eax
  401a75:	0f 85 e5 00 00 00    	jne    401b60 <dlerror@plt+0x220>
  401a7b:	48 8b 4d 00          	mov    0x0(%rbp),%rcx
  401a7f:	ba 01 00 00 00       	mov    $0x1,%edx
  401a84:	be 58 10 00 00       	mov    $0x1058,%esi
  401a89:	48 89 e7             	mov    %rsp,%rdi
  401a8c:	49 89 e4             	mov    %rsp,%r12
  401a8f:	e8 2c fb ff ff       	call   4015c0 <fread@plt>
  401a94:	48 85 c0             	test   %rax,%rax
  401a97:	0f 84 c3 00 00 00    	je     401b60 <dlerror@plt+0x220>
  401a9d:	48 8d 94 24 00 10 00 	lea    0x1000(%rsp),%rdx
  401aa4:	00 
  401aa5:	41 ba 44 4f 40 00    	mov    $0x404f44,%r10d
  401aab:	41 b9 08 00 00 00    	mov    $0x8,%r9d
  401ab1:	4c 8d 5c 24 ff       	lea    -0x1(%rsp),%r11
  401ab6:	eb 15                	jmp    401acd <dlerror@plt+0x18d>
  401ab8:	0f 1f 84 00 00 00 00 	nopl   0x0(%rax,%rax,1)
  401abf:	00 
  401ac0:	48 83 ea 01          	sub    $0x1,%rdx
  401ac4:	4c 39 da             	cmp    %r11,%rdx
  401ac7:	0f 84 93 00 00 00    	je     401b60 <dlerror@plt+0x220>
  401acd:	4c 89 d6             	mov    %r10,%rsi
  401ad0:	48 89 d7             	mov    %rdx,%rdi
  401ad3:	4c 89 c9             	mov    %r9,%rcx
  401ad6:	f3 a6                	repz cmpsb %es:(%rdi),%ds:(%rsi)
  401ad8:	0f 97 c0             	seta   %al
  401adb:	41 0f 92 c0          	setb   %r8b
  401adf:	44 29 c0             	sub    %r8d,%eax
  401ae2:	0f be c0             	movsbl %al,%eax
  401ae5:	85 c0                	test   %eax,%eax
  401ae7:	75 d7                	jne    401ac0 <dlerror@plt+0x180>
  401ae9:	48 8b 7a 10          	mov    0x10(%rdx),%rdi
  401aed:	48 8b 32             	mov    (%rdx),%rsi
  401af0:	48 89 7d 30          	mov    %rdi,0x30(%rbp)
  401af4:	48 8b 7a 18          	mov    0x18(%rdx),%rdi
  401af8:	48 89 75 20          	mov    %rsi,0x20(%rbp)
  401afc:	48 8b 72 08          	mov    0x8(%rdx),%rsi
  401b00:	48 89 7d 38          	mov    %rdi,0x38(%rbp)
  401b04:	48 8b 7a 20          	mov    0x20(%rdx),%rdi
  401b08:	48 89 75 28          	mov    %rsi,0x28(%rbp)
  401b0c:	0f ce                	bswap  %esi
  401b0e:	29 f3                	sub    %esi,%ebx
  401b10:	48 89 7d 40          	mov    %rdi,0x40(%rbp)
  401b14:	48 8b 7a 28          	mov    0x28(%rdx),%rdi
  401b18:	48 89 7d 48          	mov    %rdi,0x48(%rbp)
  401b1c:	48 8b 7a 30          	mov    0x30(%rdx),%rdi
  401b20:	48 89 7d 50          	mov    %rdi,0x50(%rbp)
  401b24:	48 8b 7a 38          	mov    0x38(%rdx),%rdi
  401b28:	48 89 7d 58          	mov    %rdi,0x58(%rbp)
  401b2c:	48 8b 7a 40          	mov    0x40(%rdx),%rdi
  401b30:	48 89 7d 60          	mov    %rdi,0x60(%rbp)
  401b34:	48 8b 7a 48          	mov    0x48(%rdx),%rdi
  401b38:	48 89 7d 68          	mov    %rdi,0x68(%rbp)
  401b3c:	48 8b 7a 50          	mov    0x50(%rdx),%rdi
  401b40:	4c 29 e2             	sub    %r12,%rdx
  401b43:	8d 94 13 00 f0 ff ff 	lea    -0x1000(%rbx,%rdx,1),%edx
  401b4a:	48 89 7d 70          	mov    %rdi,0x70(%rbp)
  401b4e:	89 55 08             	mov    %edx,0x8(%rbp)
  401b51:	48 81 c4 60 10 00 00 	add    $0x1060,%rsp
  401b58:	5b                   	pop    %rbx
  401b59:	5d                   	pop    %rbp
  401b5a:	41 5c                	pop    %r12
  401b5c:	c3                   	ret    
  401b5d:	0f 1f 00             	nopl   (%rax)
  401b60:	48 81 c4 60 10 00 00 	add    $0x1060,%rsp
  401b67:	b8 ff ff ff ff       	mov    $0xffffffff,%eax
  401b6c:	5b                   	pop    %rbx
  401b6d:	5d                   	pop    %rbp
  401b6e:	41 5c                	pop    %r12
  401b70:	c3                   	ret    
  401b71:	66 66 66 66 66 66 2e 	data16 data16 data16 data16 data16 cs nopw 0x0(%rax,%rax,1)
  401b78:	0f 1f 84 00 00 00 00 
  401b7f:	00 
  401b80:	8b 06                	mov    (%rsi),%eax
  401b82:	0f c8                	bswap  %eax
  401b84:	89 c0                	mov    %eax,%eax
  401b86:	48 01 f0             	add    %rsi,%rax
  401b89:	48 3b 47 10          	cmp    0x10(%rdi),%rax
  401b8d:	72 01                	jb     401b90 <dlerror@plt+0x250>
  401b8f:	c3                   	ret    
  401b90:	53                   	push   %rbx
  401b91:	31 c0                	xor    %eax,%eax
  401b93:	48 89 fb             	mov    %rdi,%rbx
  401b96:	bf 28 50 40 00       	mov    $0x405028,%edi
  401b9b:	e8 00 07 00 00       	call   4022a0 <dlerror@plt+0x960>
  401ba0:	48 8b 43 18          	mov    0x18(%rbx),%rax
  401ba4:	5b                   	pop    %rbx
  401ba5:	c3                   	ret    
  401ba6:	66 2e 0f 1f 84 00 00 	cs nopw 0x0(%rax,%rax,1)
  401bad:	00 00 00 
  401bb0:	41 57                	push   %r15
  401bb2:	41 56                	push   %r14
  401bb4:	41 55                	push   %r13
  401bb6:	41 54                	push   %r12
  401bb8:	49 89 fc             	mov    %rdi,%r12
  401bbb:	55                   	push   %rbp
  401bbc:	53                   	push   %rbx
  401bbd:	49 89 f5             	mov    %rsi,%r13
  401bc0:	48 83 ec 78          	sub    $0x78,%rsp
  401bc4:	48 8b 3f             	mov    (%rdi),%rdi
  401bc7:	48 85 ff             	test   %rdi,%rdi
  401bca:	0f 84 18 01 00 00    	je     401ce8 <dlerror@plt+0x3a8>
  401bd0:	41 8b 75 04          	mov    0x4(%r13),%esi
  401bd4:	31 d2                	xor    %edx,%edx
  401bd6:	0f ce                	bswap  %esi
  401bd8:	41 03 74 24 08       	add    0x8(%r12),%esi
  401bdd:	e8 3e fc ff ff       	call   401820 <fseek@plt>
  401be2:	41 8b 5d 08          	mov    0x8(%r13),%ebx
  401be6:	0f cb                	bswap  %ebx
  401be8:	89 db                	mov    %ebx,%ebx
  401bea:	48 89 df             	mov    %rbx,%rdi
  401bed:	e8 fe fb ff ff       	call   4017f0 <malloc@plt>
  401bf2:	48 85 c0             	test   %rax,%rax
  401bf5:	48 89 c5             	mov    %rax,%rbp
  401bf8:	0f 84 3b 01 00 00    	je     401d39 <dlerror@plt+0x3f9>
  401bfe:	49 8b 0c 24          	mov    (%r12),%rcx
  401c02:	ba 01 00 00 00       	mov    $0x1,%edx
  401c07:	48 89 de             	mov    %rbx,%rsi
  401c0a:	48 89 ef             	mov    %rbp,%rdi
  401c0d:	e8 ae f9 ff ff       	call   4015c0 <fread@plt>
  401c12:	48 85 c0             	test   %rax,%rax
  401c15:	0f 84 05 01 00 00    	je     401d20 <dlerror@plt+0x3e0>
  401c1b:	41 80 7d 10 01       	cmpb   $0x1,0x10(%r13)
  401c20:	74 2e                	je     401c50 <dlerror@plt+0x310>
  401c22:	49 8b 3c 24          	mov    (%r12),%rdi
  401c26:	48 85 ff             	test   %rdi,%rdi
  401c29:	74 0d                	je     401c38 <dlerror@plt+0x2f8>
  401c2b:	e8 d0 f9 ff ff       	call   401600 <fclose@plt>
  401c30:	49 c7 04 24 00 00 00 	movq   $0x0,(%r12)
  401c37:	00 
  401c38:	48 83 c4 78          	add    $0x78,%rsp
  401c3c:	48 89 e8             	mov    %rbp,%rax
  401c3f:	5b                   	pop    %rbx
  401c40:	5d                   	pop    %rbp
  401c41:	41 5c                	pop    %r12
  401c43:	41 5d                	pop    %r13
  401c45:	41 5e                	pop    %r14
  401c47:	41 5f                	pop    %r15
  401c49:	c3                   	ret    
  401c4a:	66 0f 1f 44 00 00    	nopw   0x0(%rax,%rax,1)
  401c50:	41 8b 5d 0c          	mov    0xc(%r13),%ebx
  401c54:	45 8b 75 08          	mov    0x8(%r13),%r14d
  401c58:	0f cb                	bswap  %ebx
  401c5a:	89 df                	mov    %ebx,%edi
  401c5c:	e8 8f fb ff ff       	call   4017f0 <malloc@plt>
  401c61:	48 85 c0             	test   %rax,%rax
  401c64:	49 89 c7             	mov    %rax,%r15
  401c67:	0f 84 26 01 00 00    	je     401d93 <dlerror@plt+0x453>
  401c6d:	41 0f ce             	bswap  %r14d
  401c70:	ba 70 00 00 00       	mov    $0x70,%edx
  401c75:	be 6a 4f 40 00       	mov    $0x404f6a,%esi
  401c7a:	48 89 e7             	mov    %rsp,%rdi
  401c7d:	48 c7 44 24 40 00 00 	movq   $0x0,0x40(%rsp)
  401c84:	00 00 
  401c86:	48 c7 44 24 48 00 00 	movq   $0x0,0x48(%rsp)
  401c8d:	00 00 
  401c8f:	48 c7 44 24 50 00 00 	movq   $0x0,0x50(%rsp)
  401c96:	00 00 
  401c98:	48 89 2c 24          	mov    %rbp,(%rsp)
  401c9c:	44 89 74 24 08       	mov    %r14d,0x8(%rsp)
  401ca1:	48 89 44 24 18       	mov    %rax,0x18(%rsp)
  401ca6:	89 5c 24 20          	mov    %ebx,0x20(%rsp)
  401caa:	e8 d1 fb ff ff       	call   401880 <inflateInit_@plt>
  401caf:	85 c0                	test   %eax,%eax
  401cb1:	0f 88 95 00 00 00    	js     401d4c <dlerror@plt+0x40c>
  401cb7:	be 04 00 00 00       	mov    $0x4,%esi
  401cbc:	48 89 e7             	mov    %rsp,%rdi
  401cbf:	e8 cc f8 ff ff       	call   401590 <inflate@plt>
  401cc4:	85 c0                	test   %eax,%eax
  401cc6:	0f 88 b2 00 00 00    	js     401d7e <dlerror@plt+0x43e>
  401ccc:	48 89 e7             	mov    %rsp,%rdi
  401ccf:	e8 ac fa ff ff       	call   401780 <inflateEnd@plt>
  401cd4:	48 89 ef             	mov    %rbp,%rdi
  401cd7:	4c 89 fd             	mov    %r15,%rbp
  401cda:	e8 51 f8 ff ff       	call   401530 <free@plt>
  401cdf:	e9 3e ff ff ff       	jmp    401c22 <dlerror@plt+0x2e2>
  401ce4:	0f 1f 40 00          	nopl   0x0(%rax)
  401ce8:	49 8d 7c 24 78       	lea    0x78(%r12),%rdi
  401ced:	be 4d 4f 40 00       	mov    $0x404f4d,%esi
  401cf2:	e8 a9 fb ff ff       	call   4018a0 <fopen@plt>
  401cf7:	48 85 c0             	test   %rax,%rax
  401cfa:	48 89 c7             	mov    %rax,%rdi
  401cfd:	49 89 04 24          	mov    %rax,(%r12)
  401d01:	0f 85 c9 fe ff ff    	jne    401bd0 <dlerror@plt+0x290>
  401d07:	bf 8c 4f 40 00       	mov    $0x404f8c,%edi
  401d0c:	31 c0                	xor    %eax,%eax
  401d0e:	31 ed                	xor    %ebp,%ebp
  401d10:	e8 8b 05 00 00       	call   4022a0 <dlerror@plt+0x960>
  401d15:	e9 1e ff ff ff       	jmp    401c38 <dlerror@plt+0x2f8>
  401d1a:	66 0f 1f 44 00 00    	nopw   0x0(%rax,%rax,1)
  401d20:	bf 50 4f 40 00       	mov    $0x404f50,%edi
  401d25:	e8 76 05 00 00       	call   4022a0 <dlerror@plt+0x960>
  401d2a:	48 89 ef             	mov    %rbp,%rdi
  401d2d:	31 ed                	xor    %ebp,%ebp
  401d2f:	e8 fc f7 ff ff       	call   401530 <free@plt>
  401d34:	e9 ff fe ff ff       	jmp    401c38 <dlerror@plt+0x2f8>
  401d39:	bf 48 50 40 00       	mov    $0x405048,%edi
  401d3e:	31 c0                	xor    %eax,%eax
  401d40:	31 ed                	xor    %ebp,%ebp
  401d42:	e8 59 05 00 00       	call   4022a0 <dlerror@plt+0x960>
  401d47:	e9 ec fe ff ff       	jmp    401c38 <dlerror@plt+0x2f8>
  401d4c:	48 8b 54 24 30       	mov    0x30(%rsp),%rdx
  401d51:	89 c6                	mov    %eax,%esi
  401d53:	bf 90 50 40 00       	mov    $0x405090,%edi
  401d58:	31 c0                	xor    %eax,%eax
  401d5a:	e8 41 05 00 00       	call   4022a0 <dlerror@plt+0x960>
  401d5f:	48 89 ef             	mov    %rbp,%rdi
  401d62:	31 ed                	xor    %ebp,%ebp
  401d64:	e8 c7 f7 ff ff       	call   401530 <free@plt>
  401d69:	49 8d 75 12          	lea    0x12(%r13),%rsi
  401d6d:	bf a6 4f 40 00       	mov    $0x404fa6,%edi
  401d72:	31 c0                	xor    %eax,%eax
  401d74:	e8 27 05 00 00       	call   4022a0 <dlerror@plt+0x960>
  401d79:	e9 ba fe ff ff       	jmp    401c38 <dlerror@plt+0x2f8>
  401d7e:	48 8b 54 24 30       	mov    0x30(%rsp),%rdx
  401d83:	89 c6                	mov    %eax,%esi
  401d85:	bf 71 4f 40 00       	mov    $0x404f71,%edi
  401d8a:	31 c0                	xor    %eax,%eax
  401d8c:	e8 0f 05 00 00       	call   4022a0 <dlerror@plt+0x960>
  401d91:	eb cc                	jmp    401d5f <dlerror@plt+0x41f>
  401d93:	bf 68 50 40 00       	mov    $0x405068,%edi
  401d98:	31 c0                	xor    %eax,%eax
  401d9a:	e8 01 05 00 00       	call   4022a0 <dlerror@plt+0x960>
  401d9f:	eb be                	jmp    401d5f <dlerror@plt+0x41f>
  401da1:	66 66 66 66 66 66 2e 	data16 data16 data16 data16 data16 cs nopw 0x0(%rax,%rax,1)
  401da8:	0f 1f 84 00 00 00 00 
  401daf:	00 
  401db0:	41 56                	push   %r14
  401db2:	41 55                	push   %r13
  401db4:	49 89 f6             	mov    %rsi,%r14
  401db7:	41 54                	push   %r12
  401db9:	55                   	push   %rbp
  401dba:	53                   	push   %rbx
  401dbb:	48 89 fb             	mov    %rdi,%rbx
  401dbe:	e8 ed fd ff ff       	call   401bb0 <dlerror@plt+0x270>
  401dc3:	48 89 df             	mov    %rbx,%rdi
  401dc6:	48 89 c5             	mov    %rax,%rbp
  401dc9:	e8 02 29 00 00       	call   4046d0 <dlerror@plt+0x2d90>
  401dce:	83 f8 ff             	cmp    $0xffffffff,%eax
  401dd1:	74 67                	je     401e3a <dlerror@plt+0x4fa>
  401dd3:	4d 8d 66 12          	lea    0x12(%r14),%r12
  401dd7:	48 8d bb 78 20 00 00 	lea    0x2078(%rbx),%rdi
  401dde:	4c 89 e6             	mov    %r12,%rsi
  401de1:	e8 6a 2b 00 00       	call   404950 <dlerror@plt+0x3010>
  401de6:	41 8b 5e 0c          	mov    0xc(%r14),%ebx
  401dea:	48 85 c0             	test   %rax,%rax
  401ded:	49 89 c5             	mov    %rax,%r13
  401df0:	0f cb                	bswap  %ebx
  401df2:	89 db                	mov    %ebx,%ebx
  401df4:	74 6d                	je     401e63 <dlerror@plt+0x523>
  401df6:	48 89 c1             	mov    %rax,%rcx
  401df9:	ba 01 00 00 00       	mov    $0x1,%edx
  401dfe:	48 89 de             	mov    %rbx,%rsi
  401e01:	48 89 ef             	mov    %rbp,%rdi
  401e04:	e8 f7 fa ff ff       	call   401900 <fwrite@plt>
  401e09:	48 83 f8 01          	cmp    $0x1,%rax
  401e0d:	74 05                	je     401e14 <dlerror@plt+0x4d4>
  401e0f:	48 85 db             	test   %rbx,%rbx
  401e12:	75 34                	jne    401e48 <dlerror@plt+0x508>
  401e14:	4c 89 ef             	mov    %r13,%rdi
  401e17:	e8 94 f9 ff ff       	call   4017b0 <fileno@plt>
  401e1c:	be c0 01 00 00       	mov    $0x1c0,%esi
  401e21:	89 c7                	mov    %eax,%edi
  401e23:	e8 48 fa ff ff       	call   401870 <fchmod@plt>
  401e28:	4c 89 ef             	mov    %r13,%rdi
  401e2b:	e8 d0 f7 ff ff       	call   401600 <fclose@plt>
  401e30:	48 89 ef             	mov    %rbp,%rdi
  401e33:	e8 f8 f6 ff ff       	call   401530 <free@plt>
  401e38:	31 c0                	xor    %eax,%eax
  401e3a:	5b                   	pop    %rbx
  401e3b:	5d                   	pop    %rbp
  401e3c:	41 5c                	pop    %r12
  401e3e:	41 5d                	pop    %r13
  401e40:	41 5e                	pop    %r14
  401e42:	c3                   	ret    
  401e43:	0f 1f 44 00 00       	nopl   0x0(%rax,%rax,1)
  401e48:	31 c0                	xor    %eax,%eax
  401e4a:	4c 89 e2             	mov    %r12,%rdx
  401e4d:	be b0 50 40 00       	mov    $0x4050b0,%esi
  401e52:	bf e0 4f 40 00       	mov    $0x404fe0,%edi
  401e57:	e8 14 05 00 00       	call   402370 <dlerror@plt+0xa30>
  401e5c:	b8 ff ff ff ff       	mov    $0xffffffff,%eax
  401e61:	eb d7                	jmp    401e3a <dlerror@plt+0x4fa>
  401e63:	31 c0                	xor    %eax,%eax
  401e65:	4c 89 e2             	mov    %r12,%rdx
  401e68:	be be 4f 40 00       	mov    $0x404fbe,%esi
  401e6d:	bf da 4f 40 00       	mov    $0x404fda,%edi
  401e72:	e8 f9 04 00 00       	call   402370 <dlerror@plt+0xa30>
  401e77:	b8 ff ff ff ff       	mov    $0xffffffff,%eax
  401e7c:	eb bc                	jmp    401e3a <dlerror@plt+0x4fa>
  401e7e:	66 90                	xchg   %ax,%ax
  401e80:	55                   	push   %rbp
  401e81:	53                   	push   %rbx
  401e82:	48 89 fb             	mov    %rdi,%rbx
  401e85:	48 83 ec 08          	sub    $0x8,%rsp
  401e89:	48 8b 3f             	mov    (%rdi),%rdi
  401e8c:	48 85 ff             	test   %rdi,%rdi
  401e8f:	0f 84 c3 00 00 00    	je     401f58 <dlerror@plt+0x618>
  401e95:	31 f6                	xor    %esi,%esi
  401e97:	ba 02 00 00 00       	mov    $0x2,%edx
  401e9c:	e8 7f f9 ff ff       	call   401820 <fseek@plt>
  401ea1:	48 8b 3b             	mov    (%rbx),%rdi
  401ea4:	e8 87 f8 ff ff       	call   401730 <ftell@plt>
  401ea9:	48 89 df             	mov    %rbx,%rdi
  401eac:	89 c6                	mov    %eax,%esi
  401eae:	e8 9d fb ff ff       	call   401a50 <dlerror@plt+0x110>
  401eb3:	83 f8 ff             	cmp    $0xffffffff,%eax
  401eb6:	0f 84 bc 00 00 00    	je     401f78 <dlerror@plt+0x638>
  401ebc:	8b 73 2c             	mov    0x2c(%rbx),%esi
  401ebf:	8b 43 34             	mov    0x34(%rbx),%eax
  401ec2:	31 d2                	xor    %edx,%edx
  401ec4:	48 8b 3b             	mov    (%rbx),%rdi
  401ec7:	c7 83 7c 40 00 00 00 	movl   $0x0,0x407c(%rbx)
  401ece:	00 00 00 
  401ed1:	0f ce                	bswap  %esi
  401ed3:	03 73 08             	add    0x8(%rbx),%esi
  401ed6:	0f c8                	bswap  %eax
  401ed8:	89 05 fe 58 20 00    	mov    %eax,0x2058fe(%rip)        # 6077dc <stderr@GLIBC_2.2.5+0xc>
  401ede:	e8 3d f9 ff ff       	call   401820 <fseek@plt>
  401ee3:	8b 6b 30             	mov    0x30(%rbx),%ebp
  401ee6:	0f cd                	bswap  %ebp
  401ee8:	89 ed                	mov    %ebp,%ebp
  401eea:	48 89 ef             	mov    %rbp,%rdi
  401eed:	e8 fe f8 ff ff       	call   4017f0 <malloc@plt>
  401ef2:	48 85 c0             	test   %rax,%rax
  401ef5:	48 89 43 10          	mov    %rax,0x10(%rbx)
  401ef9:	0f 84 af 00 00 00    	je     401fae <dlerror@plt+0x66e>
  401eff:	48 8b 0b             	mov    (%rbx),%rcx
  401f02:	ba 01 00 00 00       	mov    $0x1,%edx
  401f07:	48 89 ee             	mov    %rbp,%rsi
  401f0a:	48 89 c7             	mov    %rax,%rdi
  401f0d:	e8 ae f6 ff ff       	call   4015c0 <fread@plt>
  401f12:	48 85 c0             	test   %rax,%rax
  401f15:	74 69                	je     401f80 <dlerror@plt+0x640>
  401f17:	8b 43 30             	mov    0x30(%rbx),%eax
  401f1a:	48 8b 3b             	mov    (%rbx),%rdi
  401f1d:	0f c8                	bswap  %eax
  401f1f:	89 c0                	mov    %eax,%eax
  401f21:	48 03 43 10          	add    0x10(%rbx),%rax
  401f25:	48 89 43 18          	mov    %rax,0x18(%rbx)
  401f29:	e8 82 f6 ff ff       	call   4015b0 <ferror@plt>
  401f2e:	85 c0                	test   %eax,%eax
  401f30:	89 c5                	mov    %eax,%ebp
  401f32:	75 6c                	jne    401fa0 <dlerror@plt+0x660>
  401f34:	48 8b 3b             	mov    (%rbx),%rdi
  401f37:	48 85 ff             	test   %rdi,%rdi
  401f3a:	74 0c                	je     401f48 <dlerror@plt+0x608>
  401f3c:	e8 bf f6 ff ff       	call   401600 <fclose@plt>
  401f41:	48 c7 03 00 00 00 00 	movq   $0x0,(%rbx)
  401f48:	48 83 c4 08          	add    $0x8,%rsp
  401f4c:	89 e8                	mov    %ebp,%eax
  401f4e:	5b                   	pop    %rbx
  401f4f:	5d                   	pop    %rbp
  401f50:	c3                   	ret    
  401f51:	0f 1f 80 00 00 00 00 	nopl   0x0(%rax)
  401f58:	48 8d 7b 78          	lea    0x78(%rbx),%rdi
  401f5c:	be 4d 4f 40 00       	mov    $0x404f4d,%esi
  401f61:	e8 3a f9 ff ff       	call   4018a0 <fopen@plt>
  401f66:	48 85 c0             	test   %rax,%rax
  401f69:	48 89 c7             	mov    %rax,%rdi
  401f6c:	48 89 03             	mov    %rax,(%rbx)
  401f6f:	0f 85 20 ff ff ff    	jne    401e95 <dlerror@plt+0x555>
  401f75:	0f 1f 00             	nopl   (%rax)
  401f78:	bd ff ff ff ff       	mov    $0xffffffff,%ebp
  401f7d:	eb c9                	jmp    401f48 <dlerror@plt+0x608>
  401f7f:	90                   	nop
  401f80:	be ee 4f 40 00       	mov    $0x404fee,%esi
  401f85:	bf 08 50 40 00       	mov    $0x405008,%edi
  401f8a:	bd ff ff ff ff       	mov    $0xffffffff,%ebp
  401f8f:	e8 dc 03 00 00       	call   402370 <dlerror@plt+0xa30>
  401f94:	eb b2                	jmp    401f48 <dlerror@plt+0x608>
  401f96:	66 2e 0f 1f 84 00 00 	cs nopw 0x0(%rax,%rax,1)
  401f9d:	00 00 00 
  401fa0:	bf 0e 50 40 00       	mov    $0x40500e,%edi
  401fa5:	31 c0                	xor    %eax,%eax
  401fa7:	e8 f4 02 00 00       	call   4022a0 <dlerror@plt+0x960>
  401fac:	eb ca                	jmp    401f78 <dlerror@plt+0x638>
  401fae:	be d8 50 40 00       	mov    $0x4050d8,%esi
  401fb3:	bf e7 4f 40 00       	mov    $0x404fe7,%edi
  401fb8:	bd ff ff ff ff       	mov    $0xffffffff,%ebp
  401fbd:	e8 ae 03 00 00       	call   402370 <dlerror@plt+0xa30>
  401fc2:	eb 84                	jmp    401f48 <dlerror@plt+0x608>
  401fc4:	66 66 66 2e 0f 1f 84 	data16 data16 cs nopw 0x0(%rax,%rax,1)
  401fcb:	00 00 00 00 00 
  401fd0:	41 54                	push   %r12
  401fd2:	55                   	push   %rbp
  401fd3:	48 89 f5             	mov    %rsi,%rbp
  401fd6:	53                   	push   %rbx
  401fd7:	48 89 fb             	mov    %rdi,%rbx
  401fda:	48 89 f7             	mov    %rsi,%rdi
  401fdd:	e8 5e f6 ff ff       	call   401640 <strlen@plt>
  401fe2:	48 3d ff 0f 00 00    	cmp    $0xfff,%rax
  401fe8:	76 0e                	jbe    401ff8 <dlerror@plt+0x6b8>
  401fea:	31 c0                	xor    %eax,%eax
  401fec:	5b                   	pop    %rbx
  401fed:	5d                   	pop    %rbp
  401fee:	41 5c                	pop    %r12
  401ff0:	c3                   	ret    
  401ff1:	0f 1f 80 00 00 00 00 	nopl   0x0(%rax)
  401ff8:	48 8d 50 01          	lea    0x1(%rax),%rdx
  401ffc:	48 8d 7b 78          	lea    0x78(%rbx),%rdi
  402000:	4c 8d a3 78 10 00 00 	lea    0x1078(%rbx),%r12
  402007:	b9 00 10 00 00       	mov    $0x1000,%ecx
  40200c:	48 89 ee             	mov    %rbp,%rsi
  40200f:	e8 0c f7 ff ff       	call   401720 <__memcpy_chk@plt>
  402014:	48 89 ee             	mov    %rbp,%rsi
  402017:	4c 89 e7             	mov    %r12,%rdi
  40201a:	e8 c1 0f 00 00       	call   402fe0 <dlerror@plt+0x16a0>
  40201f:	48 8d bb 78 30 00 00 	lea    0x3078(%rbx),%rdi
  402026:	ba 00 10 00 00       	mov    $0x1000,%edx
  40202b:	4c 89 e6             	mov    %r12,%rsi
  40202e:	c7 83 78 40 00 00 00 	movl   $0x0,0x4078(%rbx)
  402035:	00 00 00 
  402038:	e8 03 f8 ff ff       	call   401840 <__strcpy_chk@plt>
  40203d:	48 89 df             	mov    %rbx,%rdi
  402040:	e8 3b fe ff ff       	call   401e80 <dlerror@plt+0x540>
  402045:	89 c2                	mov    %eax,%edx
  402047:	b8 01 00 00 00       	mov    $0x1,%eax
  40204c:	85 d2                	test   %edx,%edx
  40204e:	74 9c                	je     401fec <dlerror@plt+0x6ac>
  402050:	48 8b 3b             	mov    (%rbx),%rdi
  402053:	48 85 ff             	test   %rdi,%rdi
  402056:	74 92                	je     401fea <dlerror@plt+0x6aa>
  402058:	e8 a3 f5 ff ff       	call   401600 <fclose@plt>
  40205d:	48 c7 03 00 00 00 00 	movq   $0x0,(%rbx)
  402064:	eb 84                	jmp    401fea <dlerror@plt+0x6aa>
  402066:	66 2e 0f 1f 84 00 00 	cs nopw 0x0(%rax,%rax,1)
  40206d:	00 00 00 
  402070:	48 8b 47 10          	mov    0x10(%rdi),%rax
  402074:	c3                   	ret    
  402075:	66 66 2e 0f 1f 84 00 	data16 cs nopw 0x0(%rax,%rax,1)
  40207c:	00 00 00 00 
  402080:	8b 06                	mov    (%rsi),%eax
  402082:	0f c8                	bswap  %eax
  402084:	89 c0                	mov    %eax,%eax
  402086:	48 01 c6             	add    %rax,%rsi
  402089:	48 3b 77 18          	cmp    0x18(%rdi),%rsi
  40208d:	b8 00 00 00 00       	mov    $0x0,%eax
  402092:	48 0f 42 c6          	cmovb  %rsi,%rax
  402096:	c3                   	ret    
  402097:	66 0f 1f 84 00 00 00 	nopw   0x0(%rax,%rax,1)
  40209e:	00 00 
  4020a0:	8b 47 34             	mov    0x34(%rdi),%eax
  4020a3:	0f c8                	bswap  %eax
  4020a5:	c3                   	ret    
  4020a6:	66 2e 0f 1f 84 00 00 	cs nopw 0x0(%rax,%rax,1)
  4020ad:	00 00 00 
  4020b0:	53                   	push   %rbx
  4020b1:	be 90 40 00 00       	mov    $0x4090,%esi
  4020b6:	bf 01 00 00 00       	mov    $0x1,%edi
  4020bb:	e8 30 f6 ff ff       	call   4016f0 <calloc@plt>
  4020c0:	48 85 c0             	test   %rax,%rax
  4020c3:	48 89 c3             	mov    %rax,%rbx
  4020c6:	74 08                	je     4020d0 <dlerror@plt+0x790>
  4020c8:	48 89 d8             	mov    %rbx,%rax
  4020cb:	5b                   	pop    %rbx
  4020cc:	c3                   	ret    
  4020cd:	0f 1f 00             	nopl   (%rax)
  4020d0:	31 c0                	xor    %eax,%eax
  4020d2:	be 00 51 40 00       	mov    $0x405100,%esi
  4020d7:	bf 1e 50 40 00       	mov    $0x40501e,%edi
  4020dc:	e8 8f 02 00 00       	call   402370 <dlerror@plt+0xa30>
  4020e1:	48 89 d8             	mov    %rbx,%rax
  4020e4:	5b                   	pop    %rbx
  4020e5:	c3                   	ret    
  4020e6:	66 2e 0f 1f 84 00 00 	cs nopw 0x0(%rax,%rax,1)
  4020ed:	00 00 00 
  4020f0:	48 85 ff             	test   %rdi,%rdi
  4020f3:	74 2b                	je     402120 <dlerror@plt+0x7e0>
  4020f5:	53                   	push   %rbx
  4020f6:	48 89 fb             	mov    %rdi,%rbx
  4020f9:	48 8b 7f 10          	mov    0x10(%rdi),%rdi
  4020fd:	48 85 ff             	test   %rdi,%rdi
  402100:	74 05                	je     402107 <dlerror@plt+0x7c7>
  402102:	e8 29 f4 ff ff       	call   401530 <free@plt>
  402107:	48 8b 3b             	mov    (%rbx),%rdi
  40210a:	48 85 ff             	test   %rdi,%rdi
  40210d:	74 05                	je     402114 <dlerror@plt+0x7d4>
  40210f:	e8 ec f4 ff ff       	call   401600 <fclose@plt>
  402114:	48 89 df             	mov    %rbx,%rdi
  402117:	5b                   	pop    %rbx
  402118:	e9 13 f4 ff ff       	jmp    401530 <free@plt>
  40211d:	0f 1f 00             	nopl   (%rax)
  402120:	f3 c3                	repz ret 
  402122:	66 66 66 66 66 2e 0f 	data16 data16 data16 data16 cs nopw 0x0(%rax,%rax,1)
  402129:	1f 84 00 00 00 00 00 
  402130:	41 56                	push   %r14
  402132:	41 55                	push   %r13
  402134:	49 89 fd             	mov    %rdi,%r13
  402137:	41 54                	push   %r12
  402139:	55                   	push   %rbp
  40213a:	48 89 f5             	mov    %rsi,%rbp
  40213d:	53                   	push   %rbx
  40213e:	48 8b 5f 10          	mov    0x10(%rdi),%rbx
  402142:	48 89 f7             	mov    %rsi,%rdi
  402145:	e8 f6 f4 ff ff       	call   401640 <strlen@plt>
  40214a:	4d 8b 75 18          	mov    0x18(%r13),%r14
  40214e:	49 89 c4             	mov    %rax,%r12
  402151:	0f 1f 80 00 00 00 00 	nopl   0x0(%rax)
  402158:	4c 39 f3             	cmp    %r14,%rbx
  40215b:	73 2d                	jae    40218a <dlerror@plt+0x84a>
  40215d:	80 7b 11 6f          	cmpb   $0x6f,0x11(%rbx)
  402161:	74 35                	je     402198 <dlerror@plt+0x858>
  402163:	8b 0b                	mov    (%rbx),%ecx
  402165:	0f c9                	bswap  %ecx
  402167:	89 c9                	mov    %ecx,%ecx
  402169:	48 01 cb             	add    %rcx,%rbx
  40216c:	49 3b 5d 10          	cmp    0x10(%r13),%rbx
  402170:	73 e6                	jae    402158 <dlerror@plt+0x818>
  402172:	31 c0                	xor    %eax,%eax
  402174:	bf 28 50 40 00       	mov    $0x405028,%edi
  402179:	e8 22 01 00 00       	call   4022a0 <dlerror@plt+0x960>
  40217e:	49 8b 5d 18          	mov    0x18(%r13),%rbx
  402182:	49 89 de             	mov    %rbx,%r14
  402185:	4c 39 f3             	cmp    %r14,%rbx
  402188:	72 d3                	jb     40215d <dlerror@plt+0x81d>
  40218a:	5b                   	pop    %rbx
  40218b:	31 c0                	xor    %eax,%eax
  40218d:	5d                   	pop    %rbp
  40218e:	41 5c                	pop    %r12
  402190:	41 5d                	pop    %r13
  402192:	41 5e                	pop    %r14
  402194:	c3                   	ret    
  402195:	0f 1f 00             	nopl   (%rax)
  402198:	48 8d 7b 12          	lea    0x12(%rbx),%rdi
  40219c:	4c 89 e2             	mov    %r12,%rdx
  40219f:	48 89 ee             	mov    %rbp,%rsi
  4021a2:	e8 c9 f3 ff ff       	call   401570 <strncmp@plt>
  4021a7:	85 c0                	test   %eax,%eax
  4021a9:	75 b8                	jne    402163 <dlerror@plt+0x823>
  4021ab:	42 80 7c 23 12 00    	cmpb   $0x0,0x12(%rbx,%r12,1)
  4021b1:	4a 8d 54 23 13       	lea    0x13(%rbx,%r12,1),%rdx
  4021b6:	4a 8d 44 23 12       	lea    0x12(%rbx,%r12,1),%rax
  4021bb:	5b                   	pop    %rbx
  4021bc:	5d                   	pop    %rbp
  4021bd:	41 5c                	pop    %r12
  4021bf:	48 0f 45 c2          	cmovne %rdx,%rax
  4021c3:	41 5d                	pop    %r13
  4021c5:	41 5e                	pop    %r14
  4021c7:	c3                   	ret    
  4021c8:	0f 1f 84 00 00 00 00 	nopl   0x0(%rax,%rax,1)
  4021cf:	00 
  4021d0:	48 89 fa             	mov    %rdi,%rdx
  4021d3:	48 8b 3d f6 55 20 00 	mov    0x2055f6(%rip),%rdi        # 6077d0 <stderr@GLIBC_2.2.5>
  4021da:	48 89 f1             	mov    %rsi,%rcx
  4021dd:	be 01 00 00 00       	mov    $0x1,%esi
  4021e2:	e9 59 f3 ff ff       	jmp    401540 <__vfprintf_chk@plt>
  4021e7:	66 0f 1f 84 00 00 00 	nopw   0x0(%rax,%rax,1)
  4021ee:	00 00 
  4021f0:	48 81 ec d8 00 00 00 	sub    $0xd8,%rsp
  4021f7:	84 c0                	test   %al,%al
  4021f9:	48 89 74 24 28       	mov    %rsi,0x28(%rsp)
  4021fe:	48 89 54 24 30       	mov    %rdx,0x30(%rsp)
  402203:	48 89 4c 24 38       	mov    %rcx,0x38(%rsp)
  402208:	4c 89 44 24 40       	mov    %r8,0x40(%rsp)
  40220d:	4c 89 4c 24 48       	mov    %r9,0x48(%rsp)
  402212:	74 37                	je     40224b <dlerror@plt+0x90b>
  402214:	0f 29 44 24 50       	movaps %xmm0,0x50(%rsp)
  402219:	0f 29 4c 24 60       	movaps %xmm1,0x60(%rsp)
  40221e:	0f 29 54 24 70       	movaps %xmm2,0x70(%rsp)
  402223:	0f 29 9c 24 80 00 00 	movaps %xmm3,0x80(%rsp)
  40222a:	00 
  40222b:	0f 29 a4 24 90 00 00 	movaps %xmm4,0x90(%rsp)
  402232:	00 
  402233:	0f 29 ac 24 a0 00 00 	movaps %xmm5,0xa0(%rsp)
  40223a:	00 
  40223b:	0f 29 b4 24 b0 00 00 	movaps %xmm6,0xb0(%rsp)
  402242:	00 
  402243:	0f 29 bc 24 c0 00 00 	movaps %xmm7,0xc0(%rsp)
  40224a:	00 
  40224b:	48 8d 84 24 e0 00 00 	lea    0xe0(%rsp),%rax
  402252:	00 
  402253:	48 89 fa             	mov    %rdi,%rdx
  402256:	48 8d 4c 24 08       	lea    0x8(%rsp),%rcx
  40225b:	be 01 00 00 00       	mov    $0x1,%esi
  402260:	48 8b 3d 69 55 20 00 	mov    0x205569(%rip),%rdi        # 6077d0 <stderr@GLIBC_2.2.5>
  402267:	48 89 44 24 10       	mov    %rax,0x10(%rsp)
  40226c:	48 8d 44 24 20       	lea    0x20(%rsp),%rax
  402271:	c7 44 24 08 08 00 00 	movl   $0x8,0x8(%rsp)
  402278:	00 
  402279:	c7 44 24 0c 30 00 00 	movl   $0x30,0xc(%rsp)
  402280:	00 
  402281:	48 89 44 24 18       	mov    %rax,0x18(%rsp)
  402286:	e8 b5 f2 ff ff       	call   401540 <__vfprintf_chk@plt>
  40228b:	48 81 c4 d8 00 00 00 	add    $0xd8,%rsp
  402292:	c3                   	ret    
  402293:	66 66 66 66 2e 0f 1f 	data16 data16 data16 cs nopw 0x0(%rax,%rax,1)
  40229a:	84 00 00 00 00 00 
  4022a0:	53                   	push   %rbx
  4022a1:	48 81 ec d0 00 00 00 	sub    $0xd0,%rsp
  4022a8:	84 c0                	test   %al,%al
  4022aa:	48 89 74 24 28       	mov    %rsi,0x28(%rsp)
  4022af:	48 89 54 24 30       	mov    %rdx,0x30(%rsp)
  4022b4:	48 89 4c 24 38       	mov    %rcx,0x38(%rsp)
  4022b9:	4c 89 44 24 40       	mov    %r8,0x40(%rsp)
  4022be:	4c 89 4c 24 48       	mov    %r9,0x48(%rsp)
  4022c3:	74 37                	je     4022fc <dlerror@plt+0x9bc>
  4022c5:	0f 29 44 24 50       	movaps %xmm0,0x50(%rsp)
  4022ca:	0f 29 4c 24 60       	movaps %xmm1,0x60(%rsp)
  4022cf:	0f 29 54 24 70       	movaps %xmm2,0x70(%rsp)
  4022d4:	0f 29 9c 24 80 00 00 	movaps %xmm3,0x80(%rsp)
  4022db:	00 
  4022dc:	0f 29 a4 24 90 00 00 	movaps %xmm4,0x90(%rsp)
  4022e3:	00 
  4022e4:	0f 29 ac 24 a0 00 00 	movaps %xmm5,0xa0(%rsp)
  4022eb:	00 
  4022ec:	0f 29 b4 24 b0 00 00 	movaps %xmm6,0xb0(%rsp)
  4022f3:	00 
  4022f4:	0f 29 bc 24 c0 00 00 	movaps %xmm7,0xc0(%rsp)
  4022fb:	00 
  4022fc:	48 89 fb             	mov    %rdi,%rbx
  4022ff:	e8 ec f2 ff ff       	call   4015f0 <getpid@plt>
  402304:	ba 2b 51 40 00       	mov    $0x40512b,%edx
  402309:	89 c1                	mov    %eax,%ecx
  40230b:	be 01 00 00 00       	mov    $0x1,%esi
  402310:	48 8b 3d b9 54 20 00 	mov    0x2054b9(%rip),%rdi        # 6077d0 <stderr@GLIBC_2.2.5>
  402317:	31 c0                	xor    %eax,%eax
  402319:	e8 f2 f5 ff ff       	call   401910 <__fprintf_chk@plt>
  40231e:	48 8d 84 24 e0 00 00 	lea    0xe0(%rsp),%rax
  402325:	00 
  402326:	48 8b 3d a3 54 20 00 	mov    0x2054a3(%rip),%rdi        # 6077d0 <stderr@GLIBC_2.2.5>
  40232d:	48 8d 4c 24 08       	lea    0x8(%rsp),%rcx
  402332:	48 89 da             	mov    %rbx,%rdx
  402335:	be 01 00 00 00       	mov    $0x1,%esi
  40233a:	c7 44 24 08 08 00 00 	movl   $0x8,0x8(%rsp)
  402341:	00 
  402342:	48 89 44 24 10       	mov    %rax,0x10(%rsp)
  402347:	48 8d 44 24 20       	lea    0x20(%rsp),%rax
  40234c:	c7 44 24 0c 30 00 00 	movl   $0x30,0xc(%rsp)
  402353:	00 
  402354:	48 89 44 24 18       	mov    %rax,0x18(%rsp)
  402359:	e8 e2 f1 ff ff       	call   401540 <__vfprintf_chk@plt>
  40235e:	48 81 c4 d0 00 00 00 	add    $0xd0,%rsp
  402365:	5b                   	pop    %rbx
  402366:	c3                   	ret    
  402367:	66 0f 1f 84 00 00 00 	nopw   0x0(%rax,%rax,1)
  40236e:	00 00 
  402370:	53                   	push   %rbx
  402371:	48 89 fb             	mov    %rdi,%rbx
  402374:	48 81 ec d0 00 00 00 	sub    $0xd0,%rsp
  40237b:	84 c0                	test   %al,%al
  40237d:	48 89 54 24 30       	mov    %rdx,0x30(%rsp)
  402382:	48 89 4c 24 38       	mov    %rcx,0x38(%rsp)
  402387:	4c 89 44 24 40       	mov    %r8,0x40(%rsp)
  40238c:	4c 89 4c 24 48       	mov    %r9,0x48(%rsp)
  402391:	74 37                	je     4023ca <dlerror@plt+0xa8a>
  402393:	0f 29 44 24 50       	movaps %xmm0,0x50(%rsp)
  402398:	0f 29 4c 24 60       	movaps %xmm1,0x60(%rsp)
  40239d:	0f 29 54 24 70       	movaps %xmm2,0x70(%rsp)
  4023a2:	0f 29 9c 24 80 00 00 	movaps %xmm3,0x80(%rsp)
  4023a9:	00 
  4023aa:	0f 29 a4 24 90 00 00 	movaps %xmm4,0x90(%rsp)
  4023b1:	00 
  4023b2:	0f 29 ac 24 a0 00 00 	movaps %xmm5,0xa0(%rsp)
  4023b9:	00 
  4023ba:	0f 29 b4 24 b0 00 00 	movaps %xmm6,0xb0(%rsp)
  4023c1:	00 
  4023c2:	0f 29 bc 24 c0 00 00 	movaps %xmm7,0xc0(%rsp)
  4023c9:	00 
  4023ca:	48 8d 84 24 e0 00 00 	lea    0xe0(%rsp),%rax
  4023d1:	00 
  4023d2:	48 8d 4c 24 08       	lea    0x8(%rsp),%rcx
  4023d7:	48 89 f2             	mov    %rsi,%rdx
  4023da:	be 01 00 00 00       	mov    $0x1,%esi
  4023df:	48 8b 3d ea 53 20 00 	mov    0x2053ea(%rip),%rdi        # 6077d0 <stderr@GLIBC_2.2.5>
  4023e6:	48 89 44 24 10       	mov    %rax,0x10(%rsp)
  4023eb:	48 8d 44 24 20       	lea    0x20(%rsp),%rax
  4023f0:	c7 44 24 08 10 00 00 	movl   $0x10,0x8(%rsp)
  4023f7:	00 
  4023f8:	c7 44 24 0c 30 00 00 	movl   $0x30,0xc(%rsp)
  4023ff:	00 
  402400:	48 89 44 24 18       	mov    %rax,0x18(%rsp)
  402405:	e8 36 f1 ff ff       	call   401540 <__vfprintf_chk@plt>
  40240a:	48 89 df             	mov    %rbx,%rdi
  40240d:	e8 9e f4 ff ff       	call   4018b0 <perror@plt>
  402412:	48 81 c4 d0 00 00 00 	add    $0xd0,%rsp
  402419:	5b                   	pop    %rbx
  40241a:	c3                   	ret    
  40241b:	0f 1f 44 00 00       	nopl   0x0(%rax,%rax,1)
  402420:	53                   	push   %rbx
  402421:	48 89 fb             	mov    %rdi,%rbx
  402424:	48 81 ec 60 01 00 00 	sub    $0x160,%rsp
  40242b:	84 c0                	test   %al,%al
  40242d:	48 89 94 24 c0 00 00 	mov    %rdx,0xc0(%rsp)
  402434:	00 
  402435:	48 89 8c 24 c8 00 00 	mov    %rcx,0xc8(%rsp)
  40243c:	00 
  40243d:	4c 89 84 24 d0 00 00 	mov    %r8,0xd0(%rsp)
  402444:	00 
  402445:	4c 89 8c 24 d8 00 00 	mov    %r9,0xd8(%rsp)
  40244c:	00 
  40244d:	74 40                	je     40248f <dlerror@plt+0xb4f>
  40244f:	0f 29 84 24 e0 00 00 	movaps %xmm0,0xe0(%rsp)
  402456:	00 
  402457:	0f 29 8c 24 f0 00 00 	movaps %xmm1,0xf0(%rsp)
  40245e:	00 
  40245f:	0f 29 94 24 00 01 00 	movaps %xmm2,0x100(%rsp)
  402466:	00 
  402467:	0f 29 9c 24 10 01 00 	movaps %xmm3,0x110(%rsp)
  40246e:	00 
  40246f:	0f 29 a4 24 20 01 00 	movaps %xmm4,0x120(%rsp)
  402476:	00 
  402477:	0f 29 ac 24 30 01 00 	movaps %xmm5,0x130(%rsp)
  40247e:	00 
  40247f:	0f 29 b4 24 40 01 00 	movaps %xmm6,0x140(%rsp)
  402486:	00 
  402487:	0f 29 bc 24 50 01 00 	movaps %xmm7,0x150(%rsp)
  40248e:	00 
  40248f:	48 8d 84 24 70 01 00 	lea    0x170(%rsp),%rax
  402496:	00 
  402497:	4c 8d 4c 24 08       	lea    0x8(%rsp),%r9
  40249c:	49 89 f0             	mov    %rsi,%r8
  40249f:	ba 01 00 00 00       	mov    $0x1,%edx
  4024a4:	48 c7 c1 ff ff ff ff 	mov    $0xffffffffffffffff,%rcx
  4024ab:	be 00 10 00 00       	mov    $0x1000,%esi
  4024b0:	48 89 df             	mov    %rbx,%rdi
  4024b3:	48 89 44 24 10       	mov    %rax,0x10(%rsp)
  4024b8:	48 8d 84 24 b0 00 00 	lea    0xb0(%rsp),%rax
  4024bf:	00 
  4024c0:	c7 44 24 08 10 00 00 	movl   $0x10,0x8(%rsp)
  4024c7:	00 
  4024c8:	c7 44 24 0c 30 00 00 	movl   $0x30,0xc(%rsp)
  4024cf:	00 
  4024d0:	48 89 44 24 18       	mov    %rax,0x18(%rsp)
  4024d5:	e8 56 f3 ff ff       	call   401830 <__vsnprintf_chk@plt>
  4024da:	89 c2                	mov    %eax,%edx
  4024dc:	b8 ff ff ff ff       	mov    $0xffffffff,%eax
  4024e1:	81 fa ff 0f 00 00    	cmp    $0xfff,%edx
  4024e7:	7f 12                	jg     4024fb <dlerror@plt+0xbbb>
  4024e9:	48 8d 54 24 20       	lea    0x20(%rsp),%rdx
  4024ee:	48 89 de             	mov    %rbx,%rsi
  4024f1:	bf 01 00 00 00       	mov    $0x1,%edi
  4024f6:	e8 c5 f2 ff ff       	call   4017c0 <__xstat@plt>
  4024fb:	48 81 c4 60 01 00 00 	add    $0x160,%rsp
  402502:	5b                   	pop    %rbx
  402503:	c3                   	ret    
  402504:	66 66 66 2e 0f 1f 84 	data16 data16 cs nopw 0x0(%rax,%rax,1)
  40250b:	00 00 00 00 00 
  402510:	55                   	push   %rbp
  402511:	53                   	push   %rbx
  402512:	48 89 d1             	mov    %rdx,%rcx
  402515:	31 c0                	xor    %eax,%eax
  402517:	48 89 f5             	mov    %rsi,%rbp
  40251a:	ba a0 5d 40 00       	mov    $0x405da0,%edx
  40251f:	48 83 ec 08          	sub    $0x8,%rsp
  402523:	be 00 10 00 00       	mov    $0x1000,%esi
  402528:	48 89 fb             	mov    %rdi,%rbx
  40252b:	e8 40 f1 ff ff       	call   401670 <snprintf@plt>
  402530:	3d ff 0f 00 00       	cmp    $0xfff,%eax
  402535:	7f 39                	jg     402570 <dlerror@plt+0xc30>
  402537:	be 3a 00 00 00       	mov    $0x3a,%esi
  40253c:	48 89 df             	mov    %rbx,%rdi
  40253f:	e8 1c f1 ff ff       	call   401660 <strchr@plt>
  402544:	48 85 c0             	test   %rax,%rax
  402547:	74 27                	je     402570 <dlerror@plt+0xc30>
  402549:	48 8d 70 01          	lea    0x1(%rax),%rsi
  40254d:	c6 00 00             	movb   $0x0,(%rax)
  402550:	48 89 ef             	mov    %rbp,%rdi
  402553:	e8 28 f0 ff ff       	call   401580 <strcpy@plt>
  402558:	80 3b 00             	cmpb   $0x0,(%rbx)
  40255b:	74 13                	je     402570 <dlerror@plt+0xc30>
  40255d:	31 c0                	xor    %eax,%eax
  40255f:	80 7d 00 00          	cmpb   $0x0,0x0(%rbp)
  402563:	0f 94 c0             	sete   %al
  402566:	f7 d8                	neg    %eax
  402568:	48 83 c4 08          	add    $0x8,%rsp
  40256c:	5b                   	pop    %rbx
  40256d:	5d                   	pop    %rbp
  40256e:	c3                   	ret    
  40256f:	90                   	nop
  402570:	b8 ff ff ff ff       	mov    $0xffffffff,%eax
  402575:	eb f1                	jmp    402568 <dlerror@plt+0xc28>
  402577:	66 0f 1f 84 00 00 00 	nopw   0x0(%rax,%rax,1)
  40257e:	00 00 
  402580:	41 56                	push   %r14
  402582:	41 55                	push   %r13
  402584:	48 89 f2             	mov    %rsi,%rdx
  402587:	41 54                	push   %r12
  402589:	55                   	push   %rbp
  40258a:	49 89 fd             	mov    %rdi,%r13
  40258d:	53                   	push   %rbx
  40258e:	48 81 ec 00 50 00 00 	sub    $0x5000,%rsp
  402595:	48 8b 1f             	mov    (%rdi),%rbx
  402598:	4c 8d a4 24 00 10 00 	lea    0x1000(%rsp),%r12
  40259f:	00 
  4025a0:	48 89 e7             	mov    %rsp,%rdi
  4025a3:	4c 89 e6             	mov    %r12,%rsi
  4025a6:	e8 65 ff ff ff       	call   402510 <dlerror@plt+0xbd0>
  4025ab:	83 f8 ff             	cmp    $0xffffffff,%eax
  4025ae:	74 7e                	je     40262e <dlerror@plt+0xcee>
  4025b0:	48 8d bc 24 00 40 00 	lea    0x4000(%rsp),%rdi
  4025b7:	00 
  4025b8:	48 89 e6             	mov    %rsp,%rsi
  4025bb:	48 8d ab 78 10 00 00 	lea    0x1078(%rbx),%rbp
  4025c2:	e8 19 0a 00 00       	call   402fe0 <dlerror@plt+0x16a0>
  4025c7:	48 83 ec 08          	sub    $0x8,%rsp
  4025cb:	41 b9 31 51 40 00    	mov    $0x405131,%r9d
  4025d1:	48 89 ea             	mov    %rbp,%rdx
  4025d4:	41 54                	push   %r12
  4025d6:	4c 89 c9             	mov    %r9,%rcx
  4025d9:	31 c0                	xor    %eax,%eax
  4025db:	be 3a 51 40 00       	mov    $0x40513a,%esi
  4025e0:	4c 8d 84 24 10 40 00 	lea    0x4010(%rsp),%r8
  4025e7:	00 
  4025e8:	48 8d bc 24 10 20 00 	lea    0x2010(%rsp),%rdi
  4025ef:	00 
  4025f0:	e8 2b fe ff ff       	call   402420 <dlerror@plt+0xae0>
  4025f5:	85 c0                	test   %eax,%eax
  4025f7:	5a                   	pop    %rdx
  4025f8:	59                   	pop    %rcx
  4025f9:	75 45                	jne    402640 <dlerror@plt+0xd00>
  4025fb:	48 89 df             	mov    %rbx,%rdi
  4025fe:	e8 cd 20 00 00       	call   4046d0 <dlerror@plt+0x2d90>
  402603:	83 f8 ff             	cmp    $0xffffffff,%eax
  402606:	0f 84 94 02 00 00    	je     4028a0 <dlerror@plt+0xf60>
  40260c:	48 8d b3 78 20 00 00 	lea    0x2078(%rbx),%rsi
  402613:	48 8d bc 24 00 20 00 	lea    0x2000(%rsp),%rdi
  40261a:	00 
  40261b:	4c 89 e2             	mov    %r12,%rdx
  40261e:	e8 ed 24 00 00       	call   404b10 <dlerror@plt+0x31d0>
  402623:	83 f8 ff             	cmp    $0xffffffff,%eax
  402626:	0f 84 74 02 00 00    	je     4028a0 <dlerror@plt+0xf60>
  40262c:	31 c0                	xor    %eax,%eax
  40262e:	48 81 c4 00 50 00 00 	add    $0x5000,%rsp
  402635:	5b                   	pop    %rbx
  402636:	5d                   	pop    %rbp
  402637:	41 5c                	pop    %r12
  402639:	41 5d                	pop    %r13
  40263b:	41 5e                	pop    %r14
  40263d:	c3                   	ret    
  40263e:	66 90                	xchg   %ax,%ax
  402640:	48 83 ec 08          	sub    $0x8,%rsp
  402644:	41 b9 31 51 40 00    	mov    $0x405131,%r9d
  40264a:	41 b8 33 51 40 00    	mov    $0x405133,%r8d
  402650:	41 54                	push   %r12
  402652:	68 31 51 40 00       	push   $0x405131
  402657:	4c 89 c9             	mov    %r9,%rcx
  40265a:	48 89 ea             	mov    %rbp,%rdx
  40265d:	be 36 51 40 00       	mov    $0x405136,%esi
  402662:	48 8d 84 24 18 40 00 	lea    0x4018(%rsp),%rax
  402669:	00 
  40266a:	50                   	push   %rax
  40266b:	31 c0                	xor    %eax,%eax
  40266d:	48 8d bc 24 20 20 00 	lea    0x2020(%rsp),%rdi
  402674:	00 
  402675:	e8 a6 fd ff ff       	call   402420 <dlerror@plt+0xae0>
  40267a:	48 83 c4 20          	add    $0x20,%rsp
  40267e:	85 c0                	test   %eax,%eax
  402680:	0f 84 75 ff ff ff    	je     4025fb <dlerror@plt+0xcbb>
  402686:	48 8d bc 24 00 30 00 	lea    0x3000(%rsp),%rdi
  40268d:	00 
  40268e:	31 c0                	xor    %eax,%eax
  402690:	49 89 e0             	mov    %rsp,%r8
  402693:	b9 31 51 40 00       	mov    $0x405131,%ecx
  402698:	48 89 ea             	mov    %rbp,%rdx
  40269b:	be 45 51 40 00       	mov    $0x405145,%esi
  4026a0:	e8 7b fd ff ff       	call   402420 <dlerror@plt+0xae0>
  4026a5:	85 c0                	test   %eax,%eax
  4026a7:	0f 85 a3 00 00 00    	jne    402750 <dlerror@plt+0xe10>
  4026ad:	49 8b 7d 00          	mov    0x0(%r13),%rdi
  4026b1:	e8 1a 20 00 00       	call   4046d0 <dlerror@plt+0x2d90>
  4026b6:	83 f8 ff             	cmp    $0xffffffff,%eax
  4026b9:	0f 84 e1 00 00 00    	je     4027a0 <dlerror@plt+0xe60>
  4026bf:	49 8b 5d 08          	mov    0x8(%r13),%rbx
  4026c3:	49 8d 6d 10          	lea    0x10(%r13),%rbp
  4026c7:	4d 8d 75 08          	lea    0x8(%r13),%r14
  4026cb:	48 85 db             	test   %rbx,%rbx
  4026ce:	75 1c                	jne    4026ec <dlerror@plt+0xdac>
  4026d0:	e9 eb 00 00 00       	jmp    4027c0 <dlerror@plt+0xe80>
  4026d5:	0f 1f 00             	nopl   (%rax)
  4026d8:	49 89 ee             	mov    %rbp,%r14
  4026db:	48 83 c5 08          	add    $0x8,%rbp
  4026df:	48 8b 5d f8          	mov    -0x8(%rbp),%rbx
  4026e3:	48 85 db             	test   %rbx,%rbx
  4026e6:	0f 84 d4 00 00 00    	je     4027c0 <dlerror@plt+0xe80>
  4026ec:	48 8d 7b 78          	lea    0x78(%rbx),%rdi
  4026f0:	48 8d b4 24 00 30 00 	lea    0x3000(%rsp),%rsi
  4026f7:	00 
  4026f8:	e8 03 f0 ff ff       	call   401700 <strcmp@plt>
  4026fd:	85 c0                	test   %eax,%eax
  4026ff:	75 d7                	jne    4026d8 <dlerror@plt+0xd98>
  402701:	48 8b 6b 10          	mov    0x10(%rbx),%rbp
  402705:	48 3b 6b 18          	cmp    0x18(%rbx),%rbp
  402709:	0f 83 1d ff ff ff    	jae    40262c <dlerror@plt+0xcec>
  40270f:	90                   	nop
  402710:	48 8d 7d 12          	lea    0x12(%rbp),%rdi
  402714:	4c 89 e6             	mov    %r12,%rsi
  402717:	e8 e4 ef ff ff       	call   401700 <strcmp@plt>
  40271c:	85 c0                	test   %eax,%eax
  40271e:	75 13                	jne    402733 <dlerror@plt+0xdf3>
  402720:	48 89 ee             	mov    %rbp,%rsi
  402723:	48 89 df             	mov    %rbx,%rdi
  402726:	e8 85 f6 ff ff       	call   401db0 <dlerror@plt+0x470>
  40272b:	85 c0                	test   %eax,%eax
  40272d:	0f 85 45 01 00 00    	jne    402878 <dlerror@plt+0xf38>
  402733:	48 89 ee             	mov    %rbp,%rsi
  402736:	48 89 df             	mov    %rbx,%rdi
  402739:	e8 42 f4 ff ff       	call   401b80 <dlerror@plt+0x240>
  40273e:	48 3b 43 18          	cmp    0x18(%rbx),%rax
  402742:	48 89 c5             	mov    %rax,%rbp
  402745:	72 c9                	jb     402710 <dlerror@plt+0xdd0>
  402747:	e9 e0 fe ff ff       	jmp    40262c <dlerror@plt+0xcec>
  40274c:	0f 1f 40 00          	nopl   0x0(%rax)
  402750:	48 8d bc 24 00 30 00 	lea    0x3000(%rsp),%rdi
  402757:	00 
  402758:	31 c0                	xor    %eax,%eax
  40275a:	49 89 e0             	mov    %rsp,%r8
  40275d:	b9 31 51 40 00       	mov    $0x405131,%ecx
  402762:	48 89 ea             	mov    %rbp,%rdx
  402765:	be 50 51 40 00       	mov    $0x405150,%esi
  40276a:	e8 b1 fc ff ff       	call   402420 <dlerror@plt+0xae0>
  40276f:	85 c0                	test   %eax,%eax
  402771:	0f 84 36 ff ff ff    	je     4026ad <dlerror@plt+0xd6d>
  402777:	48 8d bc 24 00 30 00 	lea    0x3000(%rsp),%rdi
  40277e:	00 
  40277f:	31 c0                	xor    %eax,%eax
  402781:	49 89 e0             	mov    %rsp,%r8
  402784:	b9 31 51 40 00       	mov    $0x405131,%ecx
  402789:	48 89 ea             	mov    %rbp,%rdx
  40278c:	be 3e 51 40 00       	mov    $0x40513e,%esi
  402791:	e8 8a fc ff ff       	call   402420 <dlerror@plt+0xae0>
  402796:	85 c0                	test   %eax,%eax
  402798:	0f 84 0f ff ff ff    	je     4026ad <dlerror@plt+0xd6d>
  40279e:	66 90                	xchg   %ax,%ax
  4027a0:	48 8d b4 24 00 30 00 	lea    0x3000(%rsp),%rsi
  4027a7:	00 
  4027a8:	31 c0                	xor    %eax,%eax
  4027aa:	bf 5b 51 40 00       	mov    $0x40515b,%edi
  4027af:	e8 ec fa ff ff       	call   4022a0 <dlerror@plt+0x960>
  4027b4:	b8 ff ff ff ff       	mov    $0xffffffff,%eax
  4027b9:	e9 70 fe ff ff       	jmp    40262e <dlerror@plt+0xcee>
  4027be:	66 90                	xchg   %ax,%ax
  4027c0:	31 c0                	xor    %eax,%eax
  4027c2:	e8 e9 f8 ff ff       	call   4020b0 <dlerror@plt+0x770>
  4027c7:	48 85 c0             	test   %rax,%rax
  4027ca:	48 89 c3             	mov    %rax,%rbx
  4027cd:	74 d1                	je     4027a0 <dlerror@plt+0xe60>
  4027cf:	48 8d 78 78          	lea    0x78(%rax),%rdi
  4027d3:	48 8d 8c 24 00 30 00 	lea    0x3000(%rsp),%rcx
  4027da:	00 
  4027db:	31 c0                	xor    %eax,%eax
  4027dd:	ba a0 5d 40 00       	mov    $0x405da0,%edx
  4027e2:	be 00 10 00 00       	mov    $0x1000,%esi
  4027e7:	e8 84 ee ff ff       	call   401670 <snprintf@plt>
  4027ec:	3d ff 0f 00 00       	cmp    $0xfff,%eax
  4027f1:	0f 8f c9 00 00 00    	jg     4028c0 <dlerror@plt+0xf80>
  4027f7:	49 8b 45 00          	mov    0x0(%r13),%rax
  4027fb:	48 8d bb 78 10 00 00 	lea    0x1078(%rbx),%rdi
  402802:	ba a0 5d 40 00       	mov    $0x405da0,%edx
  402807:	be 00 10 00 00       	mov    $0x1000,%esi
  40280c:	48 8d 88 78 10 00 00 	lea    0x1078(%rax),%rcx
  402813:	31 c0                	xor    %eax,%eax
  402815:	e8 56 ee ff ff       	call   401670 <snprintf@plt>
  40281a:	3d ff 0f 00 00       	cmp    $0xfff,%eax
  40281f:	0f 8f 9b 00 00 00    	jg     4028c0 <dlerror@plt+0xf80>
  402825:	49 8b 45 00          	mov    0x0(%r13),%rax
  402829:	48 8d bb 78 20 00 00 	lea    0x2078(%rbx),%rdi
  402830:	ba a0 5d 40 00       	mov    $0x405da0,%edx
  402835:	be 00 10 00 00       	mov    $0x1000,%esi
  40283a:	48 8d 88 78 20 00 00 	lea    0x2078(%rax),%rcx
  402841:	31 c0                	xor    %eax,%eax
  402843:	e8 28 ee ff ff       	call   401670 <snprintf@plt>
  402848:	3d ff 0f 00 00       	cmp    $0xfff,%eax
  40284d:	7f 71                	jg     4028c0 <dlerror@plt+0xf80>
  40284f:	49 8b 45 00          	mov    0x0(%r13),%rax
  402853:	48 89 df             	mov    %rbx,%rdi
  402856:	8b 80 78 40 00 00    	mov    0x4078(%rax),%eax
  40285c:	89 83 78 40 00 00    	mov    %eax,0x4078(%rbx)
  402862:	e8 19 f6 ff ff       	call   401e80 <dlerror@plt+0x540>
  402867:	85 c0                	test   %eax,%eax
  402869:	75 6e                	jne    4028d9 <dlerror@plt+0xf99>
  40286b:	49 89 1e             	mov    %rbx,(%r14)
  40286e:	e9 8e fe ff ff       	jmp    402701 <dlerror@plt+0xdc1>
  402873:	0f 1f 44 00 00       	nopl   0x0(%rax,%rax,1)
  402878:	31 c0                	xor    %eax,%eax
  40287a:	4c 89 e6             	mov    %r12,%rsi
  40287d:	bf 9e 51 40 00       	mov    $0x40519e,%edi
  402882:	e8 19 fa ff ff       	call   4022a0 <dlerror@plt+0x960>
  402887:	48 89 df             	mov    %rbx,%rdi
  40288a:	e8 61 f8 ff ff       	call   4020f0 <dlerror@plt+0x7b0>
  40288f:	b8 ff ff ff ff       	mov    $0xffffffff,%eax
  402894:	e9 95 fd ff ff       	jmp    40262e <dlerror@plt+0xcee>
  402899:	0f 1f 80 00 00 00 00 	nopl   0x0(%rax)
  4028a0:	31 c0                	xor    %eax,%eax
  4028a2:	4c 89 e6             	mov    %r12,%rsi
  4028a5:	bf 8c 51 40 00       	mov    $0x40518c,%edi
  4028aa:	e8 f1 f9 ff ff       	call   4022a0 <dlerror@plt+0x960>
  4028af:	b8 ff ff ff ff       	mov    $0xffffffff,%eax
  4028b4:	e9 75 fd ff ff       	jmp    40262e <dlerror@plt+0xcee>
  4028b9:	0f 1f 80 00 00 00 00 	nopl   0x0(%rax)
  4028c0:	bf 00 52 40 00       	mov    $0x405200,%edi
  4028c5:	31 c0                	xor    %eax,%eax
  4028c7:	e8 d4 f9 ff ff       	call   4022a0 <dlerror@plt+0x960>
  4028cc:	48 89 df             	mov    %rbx,%rdi
  4028cf:	e8 1c f8 ff ff       	call   4020f0 <dlerror@plt+0x7b0>
  4028d4:	e9 c7 fe ff ff       	jmp    4027a0 <dlerror@plt+0xe60>
  4028d9:	48 8d 94 24 00 30 00 	lea    0x3000(%rsp),%rdx
  4028e0:	00 
  4028e1:	be 72 51 40 00       	mov    $0x405172,%esi
  4028e6:	bf e7 4f 40 00       	mov    $0x404fe7,%edi
  4028eb:	31 c0                	xor    %eax,%eax
  4028ed:	e8 7e fa ff ff       	call   402370 <dlerror@plt+0xa30>
  4028f2:	48 89 df             	mov    %rbx,%rdi
  4028f5:	e8 f6 f7 ff ff       	call   4020f0 <dlerror@plt+0x7b0>
  4028fa:	e9 a1 fe ff ff       	jmp    4027a0 <dlerror@plt+0xe60>
  4028ff:	90                   	nop
  402900:	48 8b 47 10          	mov    0x10(%rdi),%rax
  402904:	48 3b 47 18          	cmp    0x18(%rdi),%rax
  402908:	73 6d                	jae    402977 <dlerror@plt+0x1037>
  40290a:	0f b6 50 11          	movzbl 0x11(%rax),%edx
  40290e:	80 fa 64             	cmp    $0x64,%dl
  402911:	40 0f 94 c6          	sete   %sil
  402915:	80 fa 78             	cmp    $0x78,%dl
  402918:	0f 94 c1             	sete   %cl
  40291b:	40 08 ce             	or     %cl,%sil
  40291e:	75 5a                	jne    40297a <dlerror@plt+0x103a>
  402920:	53                   	push   %rbx
  402921:	48 89 fb             	mov    %rdi,%rbx
  402924:	eb 20                	jmp    402946 <dlerror@plt+0x1006>
  402926:	66 2e 0f 1f 84 00 00 	cs nopw 0x0(%rax,%rax,1)
  40292d:	00 00 00 
  402930:	0f b6 50 11          	movzbl 0x11(%rax),%edx
  402934:	80 fa 64             	cmp    $0x64,%dl
  402937:	40 0f 94 c6          	sete   %sil
  40293b:	80 fa 78             	cmp    $0x78,%dl
  40293e:	0f 94 c1             	sete   %cl
  402941:	40 08 ce             	or     %cl,%sil
  402944:	75 2a                	jne    402970 <dlerror@plt+0x1030>
  402946:	83 ea 5a             	sub    $0x5a,%edx
  402949:	81 e2 f7 00 00 00    	and    $0xf7,%edx
  40294f:	74 1f                	je     402970 <dlerror@plt+0x1030>
  402951:	48 89 c6             	mov    %rax,%rsi
  402954:	48 89 df             	mov    %rbx,%rdi
  402957:	e8 24 f2 ff ff       	call   401b80 <dlerror@plt+0x240>
  40295c:	48 39 43 18          	cmp    %rax,0x18(%rbx)
  402960:	77 ce                	ja     402930 <dlerror@plt+0xff0>
  402962:	31 c0                	xor    %eax,%eax
  402964:	5b                   	pop    %rbx
  402965:	c3                   	ret    
  402966:	66 2e 0f 1f 84 00 00 	cs nopw 0x0(%rax,%rax,1)
  40296d:	00 00 00 
  402970:	b8 01 00 00 00       	mov    $0x1,%eax
  402975:	5b                   	pop    %rbx
  402976:	c3                   	ret    
  402977:	31 c0                	xor    %eax,%eax
  402979:	c3                   	ret    
  40297a:	b8 01 00 00 00       	mov    $0x1,%eax
  40297f:	c3                   	ret    
  402980:	41 54                	push   %r12
  402982:	55                   	push   %rbp
  402983:	49 89 fc             	mov    %rdi,%r12
  402986:	53                   	push   %rbx
  402987:	31 c0                	xor    %eax,%eax
  402989:	b9 14 00 00 00       	mov    $0x14,%ecx
  40298e:	48 81 ec a0 00 00 00 	sub    $0xa0,%rsp
  402995:	48 8b 5f 10          	mov    0x10(%rdi),%rbx
  402999:	49 3b 5c 24 18       	cmp    0x18(%r12),%rbx
  40299e:	48 89 e7             	mov    %rsp,%rdi
  4029a1:	48 89 e5             	mov    %rsp,%rbp
  4029a4:	f3 48 ab             	rep stos %rax,%es:(%rdi)
  4029a7:	4c 89 24 24          	mov    %r12,(%rsp)
  4029ab:	72 28                	jb     4029d5 <dlerror@plt+0x1095>
  4029ad:	e9 9f 00 00 00       	jmp    402a51 <dlerror@plt+0x1111>
  4029b2:	66 0f 1f 44 00 00    	nopw   0x0(%rax,%rax,1)
  4029b8:	3c 78                	cmp    $0x78,%al
  4029ba:	74 28                	je     4029e4 <dlerror@plt+0x10a4>
  4029bc:	3c 64                	cmp    $0x64,%al
  4029be:	74 40                	je     402a00 <dlerror@plt+0x10c0>
  4029c0:	48 89 de             	mov    %rbx,%rsi
  4029c3:	4c 89 e7             	mov    %r12,%rdi
  4029c6:	e8 b5 f1 ff ff       	call   401b80 <dlerror@plt+0x240>
  4029cb:	49 39 44 24 18       	cmp    %rax,0x18(%r12)
  4029d0:	48 89 c3             	mov    %rax,%rbx
  4029d3:	76 43                	jbe    402a18 <dlerror@plt+0x10d8>
  4029d5:	0f b6 43 11          	movzbl 0x11(%rbx),%eax
  4029d9:	8d 50 a6             	lea    -0x5a(%rax),%edx
  4029dc:	81 e2 f7 00 00 00    	and    $0xf7,%edx
  4029e2:	75 d4                	jne    4029b8 <dlerror@plt+0x1078>
  4029e4:	48 89 de             	mov    %rbx,%rsi
  4029e7:	4c 89 e7             	mov    %r12,%rdi
  4029ea:	e8 c1 f3 ff ff       	call   401db0 <dlerror@plt+0x470>
  4029ef:	85 c0                	test   %eax,%eax
  4029f1:	74 cd                	je     4029c0 <dlerror@plt+0x1080>
  4029f3:	48 8b 7c 24 08       	mov    0x8(%rsp),%rdi
  4029f8:	41 bc ff ff ff ff    	mov    $0xffffffff,%r12d
  4029fe:	eb 20                	jmp    402a20 <dlerror@plt+0x10e0>
  402a00:	48 8d 73 12          	lea    0x12(%rbx),%rsi
  402a04:	48 89 ef             	mov    %rbp,%rdi
  402a07:	e8 74 fb ff ff       	call   402580 <dlerror@plt+0xc40>
  402a0c:	83 f8 ff             	cmp    $0xffffffff,%eax
  402a0f:	75 af                	jne    4029c0 <dlerror@plt+0x1080>
  402a11:	eb e0                	jmp    4029f3 <dlerror@plt+0x10b3>
  402a13:	0f 1f 44 00 00       	nopl   0x0(%rax,%rax,1)
  402a18:	48 8b 7c 24 08       	mov    0x8(%rsp),%rdi
  402a1d:	45 31 e4             	xor    %r12d,%r12d
  402a20:	48 85 ff             	test   %rdi,%rdi
  402a23:	48 8d 5d 10          	lea    0x10(%rbp),%rbx
  402a27:	74 19                	je     402a42 <dlerror@plt+0x1102>
  402a29:	0f 1f 80 00 00 00 00 	nopl   0x0(%rax)
  402a30:	48 83 c3 08          	add    $0x8,%rbx
  402a34:	e8 b7 f6 ff ff       	call   4020f0 <dlerror@plt+0x7b0>
  402a39:	48 8b 7b f8          	mov    -0x8(%rbx),%rdi
  402a3d:	48 85 ff             	test   %rdi,%rdi
  402a40:	75 ee                	jne    402a30 <dlerror@plt+0x10f0>
  402a42:	48 81 c4 a0 00 00 00 	add    $0xa0,%rsp
  402a49:	44 89 e0             	mov    %r12d,%eax
  402a4c:	5b                   	pop    %rbx
  402a4d:	5d                   	pop    %rbp
  402a4e:	41 5c                	pop    %r12
  402a50:	c3                   	ret    
  402a51:	45 31 e4             	xor    %r12d,%r12d
  402a54:	eb ec                	jmp    402a42 <dlerror@plt+0x1102>
  402a56:	66 2e 0f 1f 84 00 00 	cs nopw 0x0(%rax,%rax,1)
  402a5d:	00 00 00 
  402a60:	41 57                	push   %r15
  402a62:	41 56                	push   %r14
  402a64:	41 55                	push   %r13
  402a66:	41 54                	push   %r12
  402a68:	55                   	push   %rbp
  402a69:	53                   	push   %rbx
  402a6a:	48 89 fd             	mov    %rdi,%rbp
  402a6d:	48 81 ec 18 10 00 00 	sub    $0x1018,%rsp
  402a74:	48 8b 5f 10          	mov    0x10(%rdi),%rbx
  402a78:	bf b3 51 40 00       	mov    $0x4051b3,%edi
  402a7d:	ff 15 25 4e 20 00    	call   *0x204e25(%rip)        # 6078a8 <stderr@GLIBC_2.2.5+0xd8>
  402a83:	48 85 c0             	test   %rax,%rax
  402a86:	48 89 44 24 08       	mov    %rax,0x8(%rsp)
  402a8b:	0f 84 44 01 00 00    	je     402bd5 <dlerror@plt+0x1295>
  402a91:	48 8b 7c 24 08       	mov    0x8(%rsp),%rdi
  402a96:	ff 15 dc 4d 20 00    	call   *0x204ddc(%rip)        # 607878 <stderr@GLIBC_2.2.5+0xa8>
  402a9c:	48 85 c0             	test   %rax,%rax
  402a9f:	49 89 c5             	mov    %rax,%r13
  402aa2:	0f 84 3e 01 00 00    	je     402be6 <dlerror@plt+0x12a6>
  402aa8:	48 3b 5d 18          	cmp    0x18(%rbp),%rbx
  402aac:	72 22                	jb     402ad0 <dlerror@plt+0x1190>
  402aae:	e9 c5 00 00 00       	jmp    402b78 <dlerror@plt+0x1238>
  402ab3:	0f 1f 44 00 00       	nopl   0x0(%rax,%rax,1)
  402ab8:	48 89 de             	mov    %rbx,%rsi
  402abb:	48 89 ef             	mov    %rbp,%rdi
  402abe:	e8 bd f0 ff ff       	call   401b80 <dlerror@plt+0x240>
  402ac3:	48 39 45 18          	cmp    %rax,0x18(%rbp)
  402ac7:	48 89 c3             	mov    %rax,%rbx
  402aca:	0f 86 a8 00 00 00    	jbe    402b78 <dlerror@plt+0x1238>
  402ad0:	80 7b 11 73          	cmpb   $0x73,0x11(%rbx)
  402ad4:	75 e2                	jne    402ab8 <dlerror@plt+0x1178>
  402ad6:	48 89 de             	mov    %rbx,%rsi
  402ad9:	48 89 ef             	mov    %rbp,%rdi
  402adc:	4c 8d 73 12          	lea    0x12(%rbx),%r14
  402ae0:	e8 cb f0 ff ff       	call   401bb0 <dlerror@plt+0x270>
  402ae5:	48 8d 7c 24 10       	lea    0x10(%rsp),%rdi
  402aea:	49 89 c4             	mov    %rax,%r12
  402aed:	4d 89 f1             	mov    %r14,%r9
  402af0:	31 c0                	xor    %eax,%eax
  402af2:	41 b8 bc 51 40 00    	mov    $0x4051bc,%r8d
  402af8:	b9 00 10 00 00       	mov    $0x1000,%ecx
  402afd:	ba 01 00 00 00       	mov    $0x1,%edx
  402b02:	be 00 10 00 00       	mov    $0x1000,%esi
  402b07:	e8 04 ea ff ff       	call   401510 <__snprintf_chk@plt>
  402b0c:	3d ff 0f 00 00       	cmp    $0xfff,%eax
  402b11:	7f 79                	jg     402b8c <dlerror@plt+0x124c>
  402b13:	48 8d 7c 24 10       	lea    0x10(%rsp),%rdi
  402b18:	ff 15 fa 4c 20 00    	call   *0x204cfa(%rip)        # 607818 <stderr@GLIBC_2.2.5+0x48>
  402b1e:	49 89 c7             	mov    %rax,%r15
  402b21:	48 89 c2             	mov    %rax,%rdx
  402b24:	be d9 51 40 00       	mov    $0x4051d9,%esi
  402b29:	48 8b 7c 24 08       	mov    0x8(%rsp),%rdi
  402b2e:	ff 15 2c 4d 20 00    	call   *0x204d2c(%rip)        # 607860 <stderr@GLIBC_2.2.5+0x90>
  402b34:	4c 89 ff             	mov    %r15,%rdi
  402b37:	ff 15 d3 4d 20 00    	call   *0x204dd3(%rip)        # 607910 <stderr@GLIBC_2.2.5+0x140>
  402b3d:	8b 73 0c             	mov    0xc(%rbx),%esi
  402b40:	4c 89 e7             	mov    %r12,%rdi
  402b43:	0f ce                	bswap  %esi
  402b45:	89 f6                	mov    %esi,%esi
  402b47:	ff 15 93 4c 20 00    	call   *0x204c93(%rip)        # 6077e0 <stderr@GLIBC_2.2.5+0x10>
  402b4d:	48 85 c0             	test   %rax,%rax
  402b50:	74 4d                	je     402b9f <dlerror@plt+0x125f>
  402b52:	4c 89 ea             	mov    %r13,%rdx
  402b55:	4c 89 ee             	mov    %r13,%rsi
  402b58:	48 89 c7             	mov    %rax,%rdi
  402b5b:	ff 15 87 4c 20 00    	call   *0x204c87(%rip)        # 6077e8 <stderr@GLIBC_2.2.5+0x18>
  402b61:	48 85 c0             	test   %rax,%rax
  402b64:	74 53                	je     402bb9 <dlerror@plt+0x1279>
  402b66:	4c 89 e7             	mov    %r12,%rdi
  402b69:	e8 c2 e9 ff ff       	call   401530 <free@plt>
  402b6e:	e9 45 ff ff ff       	jmp    402ab8 <dlerror@plt+0x1178>
  402b73:	0f 1f 44 00 00       	nopl   0x0(%rax,%rax,1)
  402b78:	31 c0                	xor    %eax,%eax
  402b7a:	48 81 c4 18 10 00 00 	add    $0x1018,%rsp
  402b81:	5b                   	pop    %rbx
  402b82:	5d                   	pop    %rbp
  402b83:	41 5c                	pop    %r12
  402b85:	41 5d                	pop    %r13
  402b87:	41 5e                	pop    %r14
  402b89:	41 5f                	pop    %r15
  402b8b:	c3                   	ret    
  402b8c:	31 c0                	xor    %eax,%eax
  402b8e:	bf c2 51 40 00       	mov    $0x4051c2,%edi
  402b93:	e8 08 f7 ff ff       	call   4022a0 <dlerror@plt+0x960>
  402b98:	b8 ff ff ff ff       	mov    $0xffffffff,%eax
  402b9d:	eb db                	jmp    402b7a <dlerror@plt+0x123a>
  402b9f:	4c 89 f6             	mov    %r14,%rsi
  402ba2:	bf 68 52 40 00       	mov    $0x405268,%edi
  402ba7:	e8 f4 f6 ff ff       	call   4022a0 <dlerror@plt+0x960>
  402bac:	ff 15 06 4d 20 00    	call   *0x204d06(%rip)        # 6078b8 <stderr@GLIBC_2.2.5+0xe8>
  402bb2:	b8 ff ff ff ff       	mov    $0xffffffff,%eax
  402bb7:	eb c1                	jmp    402b7a <dlerror@plt+0x123a>
  402bb9:	ff 15 f9 4c 20 00    	call   *0x204cf9(%rip)        # 6078b8 <stderr@GLIBC_2.2.5+0xe8>
  402bbf:	31 c0                	xor    %eax,%eax
  402bc1:	4c 89 f6             	mov    %r14,%rsi
  402bc4:	bf e2 51 40 00       	mov    $0x4051e2,%edi
  402bc9:	e8 d2 f6 ff ff       	call   4022a0 <dlerror@plt+0x960>
  402bce:	b8 ff ff ff ff       	mov    $0xffffffff,%eax
  402bd3:	eb a5                	jmp    402b7a <dlerror@plt+0x123a>
  402bd5:	bf 20 52 40 00       	mov    $0x405220,%edi
  402bda:	e8 c1 f6 ff ff       	call   4022a0 <dlerror@plt+0x960>
  402bdf:	b8 ff ff ff ff       	mov    $0xffffffff,%eax
  402be4:	eb 94                	jmp    402b7a <dlerror@plt+0x123a>
  402be6:	31 c0                	xor    %eax,%eax
  402be8:	bf 40 52 40 00       	mov    $0x405240,%edi
  402bed:	e8 ae f6 ff ff       	call   4022a0 <dlerror@plt+0x960>
  402bf2:	b8 ff ff ff ff       	mov    $0xffffffff,%eax
  402bf7:	eb 81                	jmp    402b7a <dlerror@plt+0x123a>
  402bf9:	0f 1f 80 00 00 00 00 	nopl   0x0(%rax)
  402c00:	41 54                	push   %r12
  402c02:	49 89 f4             	mov    %rsi,%r12
  402c05:	55                   	push   %rbp
  402c06:	53                   	push   %rbx
  402c07:	48 89 fb             	mov    %rdi,%rbx
  402c0a:	bf b3 51 40 00       	mov    $0x4051b3,%edi
  402c0f:	ff 15 93 4c 20 00    	call   *0x204c93(%rip)        # 6078a8 <stderr@GLIBC_2.2.5+0xd8>
  402c15:	48 85 c0             	test   %rax,%rax
  402c18:	0f 84 b2 00 00 00    	je     402cd0 <dlerror@plt+0x1390>
  402c1e:	48 89 c7             	mov    %rax,%rdi
  402c21:	ff 15 51 4c 20 00    	call   *0x204c51(%rip)        # 607878 <stderr@GLIBC_2.2.5+0xa8>
  402c27:	48 89 de             	mov    %rbx,%rsi
  402c2a:	48 89 c7             	mov    %rax,%rdi
  402c2d:	ff 15 9d 4c 20 00    	call   *0x204c9d(%rip)        # 6078d0 <stderr@GLIBC_2.2.5+0x100>
  402c33:	48 85 c0             	test   %rax,%rax
  402c36:	48 89 c3             	mov    %rax,%rbx
  402c39:	0f 84 a1 00 00 00    	je     402ce0 <dlerror@plt+0x13a0>
  402c3f:	48 89 c7             	mov    %rax,%rdi
  402c42:	be d9 4f 40 00       	mov    $0x404fd9,%esi
  402c47:	31 c0                	xor    %eax,%eax
  402c49:	ff 15 21 4c 20 00    	call   *0x204c21(%rip)        # 607870 <stderr@GLIBC_2.2.5+0xa0>
  402c4f:	48 85 c0             	test   %rax,%rax
  402c52:	48 89 c5             	mov    %rax,%rbp
  402c55:	0f 84 95 00 00 00    	je     402cf0 <dlerror@plt+0x13b0>
  402c5b:	ff 15 67 4c 20 00    	call   *0x204c67(%rip)        # 6078c8 <stderr@GLIBC_2.2.5+0xf8>
  402c61:	48 89 ef             	mov    %rbp,%rdi
  402c64:	ff 15 16 4c 20 00    	call   *0x204c16(%rip)        # 607880 <stderr@GLIBC_2.2.5+0xb0>
  402c6a:	41 89 04 24          	mov    %eax,(%r12)
  402c6e:	41 bc ff ff ff ff    	mov    $0xffffffff,%r12d
  402c74:	ff 15 46 4c 20 00    	call   *0x204c46(%rip)        # 6078c0 <stderr@GLIBC_2.2.5+0xf0>
  402c7a:	48 85 c0             	test   %rax,%rax
  402c7d:	74 29                	je     402ca8 <dlerror@plt+0x1368>
  402c7f:	48 89 df             	mov    %rbx,%rdi
  402c82:	ff 15 88 4c 20 00    	call   *0x204c88(%rip)        # 607910 <stderr@GLIBC_2.2.5+0x140>
  402c88:	48 89 ef             	mov    %rbp,%rdi
  402c8b:	ff 15 7f 4c 20 00    	call   *0x204c7f(%rip)        # 607910 <stderr@GLIBC_2.2.5+0x140>
  402c91:	ff 15 21 4c 20 00    	call   *0x204c21(%rip)        # 6078b8 <stderr@GLIBC_2.2.5+0xe8>
  402c97:	ff 15 2b 4c 20 00    	call   *0x204c2b(%rip)        # 6078c8 <stderr@GLIBC_2.2.5+0xf8>
  402c9d:	44 89 e0             	mov    %r12d,%eax
  402ca0:	5b                   	pop    %rbx
  402ca1:	5d                   	pop    %rbp
  402ca2:	41 5c                	pop    %r12
  402ca4:	c3                   	ret    
  402ca5:	0f 1f 00             	nopl   (%rax)
  402ca8:	45 31 e4             	xor    %r12d,%r12d
  402cab:	48 89 df             	mov    %rbx,%rdi
  402cae:	ff 15 5c 4c 20 00    	call   *0x204c5c(%rip)        # 607910 <stderr@GLIBC_2.2.5+0x140>
  402cb4:	48 89 ef             	mov    %rbp,%rdi
  402cb7:	ff 15 53 4c 20 00    	call   *0x204c53(%rip)        # 607910 <stderr@GLIBC_2.2.5+0x140>
  402cbd:	ff 15 05 4c 20 00    	call   *0x204c05(%rip)        # 6078c8 <stderr@GLIBC_2.2.5+0xf8>
  402cc3:	44 89 e0             	mov    %r12d,%eax
  402cc6:	5b                   	pop    %rbx
  402cc7:	5d                   	pop    %rbp
  402cc8:	41 5c                	pop    %r12
  402cca:	c3                   	ret    
  402ccb:	0f 1f 44 00 00       	nopl   0x0(%rax,%rax,1)
  402cd0:	31 ed                	xor    %ebp,%ebp
  402cd2:	31 db                	xor    %ebx,%ebx
  402cd4:	41 bc ff ff ff ff    	mov    $0xffffffff,%r12d
  402cda:	eb a3                	jmp    402c7f <dlerror@plt+0x133f>
  402cdc:	0f 1f 40 00          	nopl   0x0(%rax)
  402ce0:	31 ed                	xor    %ebp,%ebp
  402ce2:	41 bc fe ff ff ff    	mov    $0xfffffffe,%r12d
  402ce8:	eb 95                	jmp    402c7f <dlerror@plt+0x133f>
  402cea:	66 0f 1f 44 00 00    	nopw   0x0(%rax,%rax,1)
  402cf0:	41 bc ff ff ff ff    	mov    $0xffffffff,%r12d
  402cf6:	eb 87                	jmp    402c7f <dlerror@plt+0x133f>
  402cf8:	0f 1f 84 00 00 00 00 	nopl   0x0(%rax,%rax,1)
  402cff:	00 
  402d00:	f3 c3                	repz ret 
  402d02:	66 66 66 66 66 2e 0f 	data16 data16 data16 data16 cs nopw 0x0(%rax,%rax,1)
  402d09:	1f 84 00 00 00 00 00 
  402d10:	41 54                	push   %r12
  402d12:	55                   	push   %rbp
  402d13:	53                   	push   %rbx
  402d14:	48 89 fb             	mov    %rdi,%rbx
  402d17:	e8 34 10 00 00       	call   403d50 <dlerror@plt+0x2410>
  402d1c:	85 c0                	test   %eax,%eax
  402d1e:	75 50                	jne    402d70 <dlerror@plt+0x1430>
  402d20:	c7 83 7c 40 00 00 01 	movl   $0x1,0x407c(%rbx)
  402d27:	00 00 00 
  402d2a:	48 89 df             	mov    %rbx,%rdi
  402d2d:	e8 ee 12 00 00       	call   404020 <dlerror@plt+0x26e0>
  402d32:	85 c0                	test   %eax,%eax
  402d34:	75 3a                	jne    402d70 <dlerror@plt+0x1430>
  402d36:	48 89 df             	mov    %rbx,%rdi
  402d39:	e8 92 14 00 00       	call   4041d0 <dlerror@plt+0x2890>
  402d3e:	85 c0                	test   %eax,%eax
  402d40:	75 2e                	jne    402d70 <dlerror@plt+0x1430>
  402d42:	48 89 df             	mov    %rbx,%rdi
  402d45:	e8 86 16 00 00       	call   4043d0 <dlerror@plt+0x2a90>
  402d4a:	85 c0                	test   %eax,%eax
  402d4c:	75 22                	jne    402d70 <dlerror@plt+0x1430>
  402d4e:	48 8b 05 fb 4b 20 00 	mov    0x204bfb(%rip),%rax        # 607950 <stderr@GLIBC_2.2.5+0x180>
  402d55:	48 83 38 00          	cmpq   $0x0,(%rax)
  402d59:	74 25                	je     402d80 <dlerror@plt+0x1440>
  402d5b:	48 89 df             	mov    %rbx,%rdi
  402d5e:	5b                   	pop    %rbx
  402d5f:	5d                   	pop    %rbp
  402d60:	41 5c                	pop    %r12
  402d62:	e9 f9 fc ff ff       	jmp    402a60 <dlerror@plt+0x1120>
  402d67:	66 0f 1f 84 00 00 00 	nopw   0x0(%rax,%rax,1)
  402d6e:	00 00 
  402d70:	5b                   	pop    %rbx
  402d71:	b8 ff ff ff ff       	mov    $0xffffffff,%eax
  402d76:	5d                   	pop    %rbp
  402d77:	41 5c                	pop    %r12
  402d79:	c3                   	ret    
  402d7a:	66 0f 1f 44 00 00    	nopw   0x0(%rax,%rax,1)
  402d80:	31 f6                	xor    %esi,%esi
  402d82:	31 ff                	xor    %edi,%edi
  402d84:	e8 d7 ea ff ff       	call   401860 <setlocale@plt>
  402d89:	48 89 c7             	mov    %rax,%rdi
  402d8c:	e8 2f e9 ff ff       	call   4016c0 <__strdup@plt>
  402d91:	be d9 4f 40 00       	mov    $0x404fd9,%esi
  402d96:	31 ff                	xor    %edi,%edi
  402d98:	48 89 c5             	mov    %rax,%rbp
  402d9b:	e8 c0 ea ff ff       	call   401860 <setlocale@plt>
  402da0:	bf 0e 00 00 00       	mov    $0xe,%edi
  402da5:	e8 66 ea ff ff       	call   401810 <nl_langinfo@plt>
  402daa:	48 89 ee             	mov    %rbp,%rsi
  402dad:	31 ff                	xor    %edi,%edi
  402daf:	49 89 c4             	mov    %rax,%r12
  402db2:	e8 a9 ea ff ff       	call   401860 <setlocale@plt>
  402db7:	48 89 ef             	mov    %rbp,%rdi
  402dba:	e8 71 e7 ff ff       	call   401530 <free@plt>
  402dbf:	48 8b 15 8a 4b 20 00 	mov    0x204b8a(%rip),%rdx        # 607950 <stderr@GLIBC_2.2.5+0x180>
  402dc6:	4c 89 22             	mov    %r12,(%rdx)
  402dc9:	eb 90                	jmp    402d5b <dlerror@plt+0x141b>
  402dcb:	0f 1f 44 00 00       	nopl   0x0(%rax,%rax,1)
  402dd0:	e9 4b 16 00 00       	jmp    404420 <dlerror@plt+0x2ae0>
  402dd5:	66 66 2e 0f 1f 84 00 	data16 cs nopw 0x0(%rax,%rax,1)
  402ddc:	00 00 00 00 
  402de0:	f3 c3                	repz ret 
  402de2:	66 2e 0f 1f 84 00 00 	cs nopw 0x0(%rax,%rax,1)
  402de9:	00 00 00 
  402dec:	0f 1f 40 00          	nopl   0x0(%rax)
  402df0:	41 56                	push   %r14
  402df2:	41 55                	push   %r13
  402df4:	31 c0                	xor    %eax,%eax
  402df6:	41 54                	push   %r12
  402df8:	55                   	push   %rbp
  402df9:	41 89 fe             	mov    %edi,%r14d
  402dfc:	53                   	push   %rbx
  402dfd:	31 ff                	xor    %edi,%edi
  402dff:	48 89 f5             	mov    %rsi,%rbp
  402e02:	48 81 ec 00 30 00 00 	sub    $0x3000,%rsp
  402e09:	e8 a2 f2 ff ff       	call   4020b0 <dlerror@plt+0x770>
  402e0e:	48 85 c0             	test   %rax,%rax
  402e11:	48 89 c3             	mov    %rax,%rbx
  402e14:	0f 84 36 01 00 00    	je     402f50 <dlerror@plt+0x1610>
  402e1a:	48 8b 75 00          	mov    0x0(%rbp),%rsi
  402e1e:	48 89 e7             	mov    %rsp,%rdi
  402e21:	e8 2a 04 00 00       	call   403250 <dlerror@plt+0x1910>
  402e26:	85 c0                	test   %eax,%eax
  402e28:	0f 84 22 01 00 00    	je     402f50 <dlerror@plt+0x1610>
  402e2e:	48 8d bc 24 00 20 00 	lea    0x2000(%rsp),%rdi
  402e35:	00 
  402e36:	48 89 e6             	mov    %rsp,%rsi
  402e39:	e8 92 04 00 00       	call   4032d0 <dlerror@plt+0x1990>
  402e3e:	85 c0                	test   %eax,%eax
  402e40:	0f 84 0a 01 00 00    	je     402f50 <dlerror@plt+0x1610>
  402e46:	4c 8d ac 24 00 10 00 	lea    0x1000(%rsp),%r13
  402e4d:	00 
  402e4e:	48 89 e6             	mov    %rsp,%rsi
  402e51:	4c 89 ef             	mov    %r13,%rdi
  402e54:	e8 67 04 00 00       	call   4032c0 <dlerror@plt+0x1980>
  402e59:	85 c0                	test   %eax,%eax
  402e5b:	0f 84 ef 00 00 00    	je     402f50 <dlerror@plt+0x1610>
  402e61:	bf 90 52 40 00       	mov    $0x405290,%edi
  402e66:	e8 45 17 00 00       	call   4045b0 <dlerror@plt+0x2c70>
  402e6b:	bf 90 52 40 00       	mov    $0x405290,%edi
  402e70:	49 89 c4             	mov    %rax,%r12
  402e73:	e8 e8 17 00 00       	call   404660 <dlerror@plt+0x2d20>
  402e78:	48 89 e6             	mov    %rsp,%rsi
  402e7b:	48 89 df             	mov    %rbx,%rdi
  402e7e:	e8 4d f1 ff ff       	call   401fd0 <dlerror@plt+0x690>
  402e83:	85 c0                	test   %eax,%eax
  402e85:	0f 84 95 00 00 00    	je     402f20 <dlerror@plt+0x15e0>
  402e8b:	4d 85 e4             	test   %r12,%r12
  402e8e:	44 89 b3 80 40 00 00 	mov    %r14d,0x4080(%rbx)
  402e95:	48 89 ab 88 40 00 00 	mov    %rbp,0x4088(%rbx)
  402e9c:	0f 84 c6 00 00 00    	je     402f68 <dlerror@plt+0x1628>
  402ea2:	4c 89 e6             	mov    %r12,%rsi
  402ea5:	4c 89 ef             	mov    %r13,%rdi
  402ea8:	e8 53 e8 ff ff       	call   401700 <strcmp@plt>
  402ead:	85 c0                	test   %eax,%eax
  402eaf:	74 43                	je     402ef4 <dlerror@plt+0x15b4>
  402eb1:	48 8d ab 78 20 00 00 	lea    0x2078(%rbx),%rbp
  402eb8:	31 c0                	xor    %eax,%eax
  402eba:	4c 89 e1             	mov    %r12,%rcx
  402ebd:	ba a0 5d 40 00       	mov    $0x405da0,%edx
  402ec2:	be 00 10 00 00       	mov    $0x1000,%esi
  402ec7:	48 89 ef             	mov    %rbp,%rdi
  402eca:	e8 a1 e7 ff ff       	call   401670 <snprintf@plt>
  402ecf:	3d ff 0f 00 00       	cmp    $0xfff,%eax
  402ed4:	7f 7a                	jg     402f50 <dlerror@plt+0x1610>
  402ed6:	48 8d bb 78 30 00 00 	lea    0x3078(%rbx),%rdi
  402edd:	c7 83 78 40 00 00 01 	movl   $0x1,0x4078(%rbx)
  402ee4:	00 00 00 
  402ee7:	ba 00 10 00 00       	mov    $0x1000,%edx
  402eec:	48 89 ee             	mov    %rbp,%rsi
  402eef:	e8 4c e9 ff ff       	call   401840 <__strcpy_chk@plt>
  402ef4:	48 89 df             	mov    %rbx,%rdi
  402ef7:	e8 04 fe ff ff       	call   402d00 <dlerror@plt+0x13c0>
  402efc:	48 89 df             	mov    %rbx,%rdi
  402eff:	e8 0c fe ff ff       	call   402d10 <dlerror@plt+0x13d0>
  402f04:	48 89 df             	mov    %rbx,%rdi
  402f07:	89 c5                	mov    %eax,%ebp
  402f09:	e8 c2 fe ff ff       	call   402dd0 <dlerror@plt+0x1490>
  402f0e:	89 e8                	mov    %ebp,%eax
  402f10:	48 81 c4 00 30 00 00 	add    $0x3000,%rsp
  402f17:	5b                   	pop    %rbx
  402f18:	5d                   	pop    %rbp
  402f19:	41 5c                	pop    %r12
  402f1b:	41 5d                	pop    %r13
  402f1d:	41 5e                	pop    %r14
  402f1f:	c3                   	ret    
  402f20:	48 8d b4 24 00 20 00 	lea    0x2000(%rsp),%rsi
  402f27:	00 
  402f28:	48 89 df             	mov    %rbx,%rdi
  402f2b:	e8 a0 f0 ff ff       	call   401fd0 <dlerror@plt+0x690>
  402f30:	85 c0                	test   %eax,%eax
  402f32:	0f 85 53 ff ff ff    	jne    402e8b <dlerror@plt+0x154b>
  402f38:	48 8d 94 24 00 20 00 	lea    0x2000(%rsp),%rdx
  402f3f:	00 
  402f40:	48 89 e6             	mov    %rsp,%rsi
  402f43:	bf a0 52 40 00       	mov    $0x4052a0,%edi
  402f48:	e8 53 f3 ff ff       	call   4022a0 <dlerror@plt+0x960>
  402f4d:	0f 1f 00             	nopl   (%rax)
  402f50:	48 81 c4 00 30 00 00 	add    $0x3000,%rsp
  402f57:	b8 ff ff ff ff       	mov    $0xffffffff,%eax
  402f5c:	5b                   	pop    %rbx
  402f5d:	5d                   	pop    %rbp
  402f5e:	41 5c                	pop    %r12
  402f60:	41 5d                	pop    %r13
  402f62:	41 5e                	pop    %r14
  402f64:	c3                   	ret    
  402f65:	0f 1f 00             	nopl   (%rax)
  402f68:	48 89 df             	mov    %rbx,%rdi
  402f6b:	e8 10 fa ff ff       	call   402980 <dlerror@plt+0x1040>
  402f70:	85 c0                	test   %eax,%eax
  402f72:	75 dc                	jne    402f50 <dlerror@plt+0x1610>
  402f74:	80 bb 78 20 00 00 00 	cmpb   $0x0,0x2078(%rbx)
  402f7b:	4c 8d a3 78 20 00 00 	lea    0x2078(%rbx),%r12
  402f82:	4c 89 ee             	mov    %r13,%rsi
  402f85:	bf 90 52 40 00       	mov    $0x405290,%edi
  402f8a:	49 0f 45 f4          	cmovne %r12,%rsi
  402f8e:	e8 bd 16 00 00       	call   404650 <dlerror@plt+0x2d10>
  402f93:	48 89 df             	mov    %rbx,%rdi
  402f96:	e8 b5 1c 00 00       	call   404c50 <dlerror@plt+0x3310>
  402f9b:	83 f8 ff             	cmp    $0xffffffff,%eax
  402f9e:	74 b0                	je     402f50 <dlerror@plt+0x1610>
  402fa0:	31 c0                	xor    %eax,%eax
  402fa2:	e8 39 fe ff ff       	call   402de0 <dlerror@plt+0x14a0>
  402fa7:	48 89 e9             	mov    %rbp,%rcx
  402faa:	44 89 f2             	mov    %r14d,%edx
  402fad:	48 89 de             	mov    %rbx,%rsi
  402fb0:	48 89 e7             	mov    %rsp,%rdi
  402fb3:	e8 28 1d 00 00       	call   404ce0 <dlerror@plt+0x33a0>
  402fb8:	83 bb 78 40 00 00 01 	cmpl   $0x1,0x4078(%rbx)
  402fbf:	89 c5                	mov    %eax,%ebp
  402fc1:	74 0f                	je     402fd2 <dlerror@plt+0x1692>
  402fc3:	48 89 df             	mov    %rbx,%rdi
  402fc6:	e8 25 f1 ff ff       	call   4020f0 <dlerror@plt+0x7b0>
  402fcb:	89 e8                	mov    %ebp,%eax
  402fcd:	e9 3e ff ff ff       	jmp    402f10 <dlerror@plt+0x15d0>
  402fd2:	4c 89 e7             	mov    %r12,%rdi
  402fd5:	e8 f6 17 00 00       	call   4047d0 <dlerror@plt+0x2e90>
  402fda:	eb e7                	jmp    402fc3 <dlerror@plt+0x1683>
  402fdc:	0f 1f 40 00          	nopl   0x0(%rax)
  402fe0:	53                   	push   %rbx
  402fe1:	48 89 f1             	mov    %rsi,%rcx
  402fe4:	ba a0 5d 40 00       	mov    $0x405da0,%edx
  402fe9:	31 c0                	xor    %eax,%eax
  402feb:	48 89 fb             	mov    %rdi,%rbx
  402fee:	be 00 10 00 00       	mov    $0x1000,%esi
  402ff3:	48 81 ec 00 10 00 00 	sub    $0x1000,%rsp
  402ffa:	48 89 e7             	mov    %rsp,%rdi
  402ffd:	e8 6e e6 ff ff       	call   401670 <snprintf@plt>
  403002:	31 d2                	xor    %edx,%edx
  403004:	3d ff 0f 00 00       	cmp    $0xfff,%eax
  403009:	7f 1d                	jg     403028 <dlerror@plt+0x16e8>
  40300b:	48 89 e7             	mov    %rsp,%rdi
  40300e:	e8 6d e6 ff ff       	call   401680 <dirname@plt>
  403013:	ba 00 10 00 00       	mov    $0x1000,%edx
  403018:	48 89 c6             	mov    %rax,%rsi
  40301b:	48 89 df             	mov    %rbx,%rdi
  40301e:	e8 3d e5 ff ff       	call   401560 <strncpy@plt>
  403023:	ba 01 00 00 00       	mov    $0x1,%edx
  403028:	48 81 c4 00 10 00 00 	add    $0x1000,%rsp
  40302f:	89 d0                	mov    %edx,%eax
  403031:	5b                   	pop    %rbx
  403032:	c3                   	ret    
  403033:	66 66 66 66 2e 0f 1f 	data16 data16 data16 cs nopw 0x0(%rax,%rax,1)
  40303a:	84 00 00 00 00 00 
  403040:	53                   	push   %rbx
  403041:	48 89 fb             	mov    %rdi,%rbx
  403044:	48 89 f7             	mov    %rsi,%rdi
  403047:	e8 54 e7 ff ff       	call   4017a0 <__xpg_basename@plt>
  40304c:	48 89 df             	mov    %rbx,%rdi
  40304f:	48 89 c6             	mov    %rax,%rsi
  403052:	e8 29 e5 ff ff       	call   401580 <strcpy@plt>
  403057:	b8 01 00 00 00       	mov    $0x1,%eax
  40305c:	5b                   	pop    %rbx
  40305d:	c3                   	ret    
  40305e:	66 90                	xchg   %ax,%ax
  403060:	41 54                	push   %r12
  403062:	55                   	push   %rbp
  403063:	48 89 f1             	mov    %rsi,%rcx
  403066:	53                   	push   %rbx
  403067:	31 c0                	xor    %eax,%eax
  403069:	49 89 d4             	mov    %rdx,%r12
  40306c:	be 00 10 00 00       	mov    $0x1000,%esi
  403071:	ba a0 5d 40 00       	mov    $0x405da0,%edx
  403076:	48 89 fb             	mov    %rdi,%rbx
  403079:	e8 f2 e5 ff ff       	call   401670 <snprintf@plt>
  40307e:	48 63 c8             	movslq %eax,%rcx
  403081:	48 81 f9 fe 0f 00 00 	cmp    $0xffe,%rcx
  403088:	77 6e                	ja     4030f8 <dlerror@plt+0x17b8>
  40308a:	80 7c 0b ff 2f       	cmpb   $0x2f,-0x1(%rbx,%rcx,1)
  40308f:	74 10                	je     4030a1 <dlerror@plt+0x1761>
  403091:	48 8d 41 01          	lea    0x1(%rcx),%rax
  403095:	c6 04 0b 2f          	movb   $0x2f,(%rbx,%rcx,1)
  403099:	48 83 c1 02          	add    $0x2,%rcx
  40309d:	c6 04 03 00          	movb   $0x0,(%rbx,%rax,1)
  4030a1:	bd 00 10 00 00       	mov    $0x1000,%ebp
  4030a6:	4c 89 e7             	mov    %r12,%rdi
  4030a9:	48 29 cd             	sub    %rcx,%rbp
  4030ac:	e8 8f e5 ff ff       	call   401640 <strlen@plt>
  4030b1:	48 39 c5             	cmp    %rax,%rbp
  4030b4:	76 42                	jbe    4030f8 <dlerror@plt+0x17b8>
  4030b6:	41 80 7c 04 ff 2f    	cmpb   $0x2f,-0x1(%r12,%rax,1)
  4030bc:	48 89 ea             	mov    %rbp,%rdx
  4030bf:	4c 89 e6             	mov    %r12,%rsi
  4030c2:	48 89 df             	mov    %rbx,%rdi
  4030c5:	74 11                	je     4030d8 <dlerror@plt+0x1798>
  4030c7:	e8 c4 e5 ff ff       	call   401690 <strncat@plt>
  4030cc:	48 89 d8             	mov    %rbx,%rax
  4030cf:	5b                   	pop    %rbx
  4030d0:	5d                   	pop    %rbp
  4030d1:	41 5c                	pop    %r12
  4030d3:	c3                   	ret    
  4030d4:	0f 1f 40 00          	nopl   0x0(%rax)
  4030d8:	e8 b3 e5 ff ff       	call   401690 <strncat@plt>
  4030dd:	48 89 df             	mov    %rbx,%rdi
  4030e0:	e8 5b e5 ff ff       	call   401640 <strlen@plt>
  4030e5:	c6 44 03 ff 00       	movb   $0x0,-0x1(%rbx,%rax,1)
  4030ea:	48 89 d8             	mov    %rbx,%rax
  4030ed:	5b                   	pop    %rbx
  4030ee:	5d                   	pop    %rbp
  4030ef:	41 5c                	pop    %r12
  4030f1:	c3                   	ret    
  4030f2:	66 0f 1f 44 00 00    	nopw   0x0(%rax,%rax,1)
  4030f8:	5b                   	pop    %rbx
  4030f9:	31 c0                	xor    %eax,%eax
  4030fb:	5d                   	pop    %rbp
  4030fc:	41 5c                	pop    %r12
  4030fe:	c3                   	ret    
  4030ff:	90                   	nop
  403100:	55                   	push   %rbp
  403101:	53                   	push   %rbx
  403102:	48 89 fd             	mov    %rdi,%rbp
  403105:	48 89 f3             	mov    %rsi,%rbx
  403108:	48 81 ec 08 30 00 00 	sub    $0x3008,%rsp
  40310f:	48 8d bc 24 00 20 00 	lea    0x2000(%rsp),%rdi
  403116:	00 
  403117:	e8 24 ff ff ff       	call   403040 <dlerror@plt+0x1700>
  40311c:	48 89 de             	mov    %rbx,%rsi
  40311f:	48 89 e7             	mov    %rsp,%rdi
  403122:	e8 b9 fe ff ff       	call   402fe0 <dlerror@plt+0x16a0>
  403127:	48 8d b4 24 00 10 00 	lea    0x1000(%rsp),%rsi
  40312e:	00 
  40312f:	ba 00 10 00 00       	mov    $0x1000,%edx
  403134:	48 89 e7             	mov    %rsp,%rdi
  403137:	e8 64 e5 ff ff       	call   4016a0 <__realpath_chk@plt>
  40313c:	31 d2                	xor    %edx,%edx
  40313e:	48 85 c0             	test   %rax,%rax
  403141:	74 20                	je     403163 <dlerror@plt+0x1823>
  403143:	48 8d 94 24 00 20 00 	lea    0x2000(%rsp),%rdx
  40314a:	00 
  40314b:	48 8d b4 24 00 10 00 	lea    0x1000(%rsp),%rsi
  403152:	00 
  403153:	48 89 ef             	mov    %rbp,%rdi
  403156:	e8 05 ff ff ff       	call   403060 <dlerror@plt+0x1720>
  40315b:	31 d2                	xor    %edx,%edx
  40315d:	48 85 c0             	test   %rax,%rax
  403160:	0f 95 c2             	setne  %dl
  403163:	48 81 c4 08 30 00 00 	add    $0x3008,%rsp
  40316a:	89 d0                	mov    %edx,%eax
  40316c:	5b                   	pop    %rbx
  40316d:	5d                   	pop    %rbp
  40316e:	c3                   	ret    
  40316f:	90                   	nop
  403170:	48 83 ec 08          	sub    $0x8,%rsp
  403174:	48 89 fe             	mov    %rdi,%rsi
  403177:	48 89 d7             	mov    %rdx,%rdi
  40317a:	e8 f1 e5 ff ff       	call   401770 <realpath@plt>
  40317f:	48 85 c0             	test   %rax,%rax
  403182:	0f 95 c0             	setne  %al
  403185:	48 83 c4 08          	add    $0x8,%rsp
  403189:	0f b6 c0             	movzbl %al,%eax
  40318c:	c3                   	ret    
  40318d:	0f 1f 00             	nopl   (%rax)
  403190:	48 81 ec 98 00 00 00 	sub    $0x98,%rsp
  403197:	48 89 fe             	mov    %rdi,%rsi
  40319a:	bf 01 00 00 00       	mov    $0x1,%edi
  40319f:	48 89 e2             	mov    %rsp,%rdx
  4031a2:	e8 19 e6 ff ff       	call   4017c0 <__xstat@plt>
  4031a7:	85 c0                	test   %eax,%eax
  4031a9:	0f 94 c0             	sete   %al
  4031ac:	48 81 c4 98 00 00 00 	add    $0x98,%rsp
  4031b3:	0f b6 c0             	movzbl %al,%eax
  4031b6:	c3                   	ret    
  4031b7:	66 0f 1f 84 00 00 00 	nopw   0x0(%rax,%rax,1)
  4031be:	00 00 
  4031c0:	55                   	push   %rbp
  4031c1:	53                   	push   %rbx
  4031c2:	48 89 fb             	mov    %rdi,%rbx
  4031c5:	bf 8c 61 40 00       	mov    $0x40618c,%edi
  4031ca:	48 89 f5             	mov    %rsi,%rbp
  4031cd:	48 81 ec 98 00 00 00 	sub    $0x98,%rsp
  4031d4:	e8 d7 13 00 00       	call   4045b0 <dlerror@plt+0x2c70>
  4031d9:	48 85 c0             	test   %rax,%rax
  4031dc:	74 4a                	je     403228 <dlerror@plt+0x18e8>
  4031de:	be c3 52 40 00       	mov    $0x4052c3,%esi
  4031e3:	48 89 c7             	mov    %rax,%rdi
  4031e6:	e8 d5 e6 ff ff       	call   4018c0 <strtok@plt>
  4031eb:	48 85 c0             	test   %rax,%rax
  4031ee:	74 38                	je     403228 <dlerror@plt+0x18e8>
  4031f0:	48 89 ea             	mov    %rbp,%rdx
  4031f3:	48 89 c6             	mov    %rax,%rsi
  4031f6:	48 89 df             	mov    %rbx,%rdi
  4031f9:	e8 62 fe ff ff       	call   403060 <dlerror@plt+0x1720>
  4031fe:	48 85 c0             	test   %rax,%rax
  403201:	74 14                	je     403217 <dlerror@plt+0x18d7>
  403203:	48 89 e2             	mov    %rsp,%rdx
  403206:	48 89 de             	mov    %rbx,%rsi
  403209:	bf 01 00 00 00       	mov    $0x1,%edi
  40320e:	e8 ad e5 ff ff       	call   4017c0 <__xstat@plt>
  403213:	85 c0                	test   %eax,%eax
  403215:	74 21                	je     403238 <dlerror@plt+0x18f8>
  403217:	31 ff                	xor    %edi,%edi
  403219:	be c3 52 40 00       	mov    $0x4052c3,%esi
  40321e:	e8 9d e6 ff ff       	call   4018c0 <strtok@plt>
  403223:	48 85 c0             	test   %rax,%rax
  403226:	75 c8                	jne    4031f0 <dlerror@plt+0x18b0>
  403228:	48 81 c4 98 00 00 00 	add    $0x98,%rsp
  40322f:	31 c0                	xor    %eax,%eax
  403231:	5b                   	pop    %rbx
  403232:	5d                   	pop    %rbp
  403233:	c3                   	ret    
  403234:	0f 1f 40 00          	nopl   0x0(%rax)
  403238:	48 81 c4 98 00 00 00 	add    $0x98,%rsp
  40323f:	b0 01                	mov    $0x1,%al
  403241:	5b                   	pop    %rbx
  403242:	5d                   	pop    %rbp
  403243:	c3                   	ret    
  403244:	66 66 66 2e 0f 1f 84 	data16 data16 cs nopw 0x0(%rax,%rax,1)
  40324b:	00 00 00 00 00 
  403250:	55                   	push   %rbp
  403251:	53                   	push   %rbx
  403252:	48 89 fd             	mov    %rdi,%rbp
  403255:	48 89 f3             	mov    %rsi,%rbx
  403258:	48 81 ec 08 10 00 00 	sub    $0x1008,%rsp
  40325f:	80 3e 2f             	cmpb   $0x2f,(%rsi)
  403262:	74 12                	je     403276 <dlerror@plt+0x1936>
  403264:	be 2f 00 00 00       	mov    $0x2f,%esi
  403269:	48 89 df             	mov    %rbx,%rdi
  40326c:	e8 ef e3 ff ff       	call   401660 <strchr@plt>
  403271:	48 85 c0             	test   %rax,%rax
  403274:	74 22                	je     403298 <dlerror@plt+0x1958>
  403276:	48 89 de             	mov    %rbx,%rsi
  403279:	48 89 ef             	mov    %rbp,%rdi
  40327c:	e8 7f fe ff ff       	call   403100 <dlerror@plt+0x17c0>
  403281:	85 c0                	test   %eax,%eax
  403283:	0f 95 c0             	setne  %al
  403286:	48 81 c4 08 10 00 00 	add    $0x1008,%rsp
  40328d:	0f b6 c0             	movzbl %al,%eax
  403290:	5b                   	pop    %rbx
  403291:	5d                   	pop    %rbp
  403292:	c3                   	ret    
  403293:	0f 1f 44 00 00       	nopl   0x0(%rax,%rax,1)
  403298:	48 89 de             	mov    %rbx,%rsi
  40329b:	48 89 e7             	mov    %rsp,%rdi
  40329e:	e8 1d ff ff ff       	call   4031c0 <dlerror@plt+0x1880>
  4032a3:	85 c0                	test   %eax,%eax
  4032a5:	74 09                	je     4032b0 <dlerror@plt+0x1970>
  4032a7:	48 89 e6             	mov    %rsp,%rsi
  4032aa:	eb cd                	jmp    403279 <dlerror@plt+0x1939>
  4032ac:	0f 1f 40 00          	nopl   0x0(%rax)
  4032b0:	48 b8 61 70 70 6e 61 	movabs $0x656d616e707061,%rax
  4032b7:	6d 65 00 
  4032ba:	48 89 04 24          	mov    %rax,(%rsp)
  4032be:	eb e7                	jmp    4032a7 <dlerror@plt+0x1967>
  4032c0:	e9 1b fd ff ff       	jmp    402fe0 <dlerror@plt+0x16a0>
  4032c5:	66 66 2e 0f 1f 84 00 	data16 cs nopw 0x0(%rax,%rax,1)
  4032cc:	00 00 00 00 
  4032d0:	48 83 ec 08          	sub    $0x8,%rsp
  4032d4:	49 89 f1             	mov    %rsi,%r9
  4032d7:	31 c0                	xor    %eax,%eax
  4032d9:	41 b8 49 51 40 00    	mov    $0x405149,%r8d
  4032df:	48 c7 c1 ff ff ff ff 	mov    $0xffffffffffffffff,%rcx
  4032e6:	ba 01 00 00 00       	mov    $0x1,%edx
  4032eb:	be 00 10 00 00       	mov    $0x1000,%esi
  4032f0:	e8 1b e2 ff ff       	call   401510 <__snprintf_chk@plt>
  4032f5:	3d ff 0f 00 00       	cmp    $0xfff,%eax
  4032fa:	0f 9e c0             	setle  %al
  4032fd:	48 83 c4 08          	add    $0x8,%rsp
  403301:	0f b6 c0             	movzbl %al,%eax
  403304:	c3                   	ret    
  403305:	66 2e 0f 1f 84 00 00 	cs nopw 0x0(%rax,%rax,1)
  40330c:	00 00 00 
  40330f:	90                   	nop
  403310:	53                   	push   %rbx
  403311:	be c5 52 40 00       	mov    $0x4052c5,%esi
  403316:	48 89 fb             	mov    %rdi,%rbx
  403319:	e8 02 e6 ff ff       	call   401920 <dlsym@plt>
  40331e:	48 85 c0             	test   %rax,%rax
  403321:	48 89 05 30 46 20 00 	mov    %rax,0x204630(%rip)        # 607958 <stderr@GLIBC_2.2.5+0x188>
  403328:	0f 84 57 05 00 00    	je     403885 <dlerror@plt+0x1f45>
  40332e:	be de 52 40 00       	mov    $0x4052de,%esi
  403333:	48 89 df             	mov    %rbx,%rdi
  403336:	e8 e5 e5 ff ff       	call   401920 <dlsym@plt>
  40333b:	48 85 c0             	test   %rax,%rax
  40333e:	48 89 05 0b 46 20 00 	mov    %rax,0x20460b(%rip)        # 607950 <stderr@GLIBC_2.2.5+0x180>
  403345:	0f 84 5c 05 00 00    	je     4038a7 <dlerror@plt+0x1f67>
  40334b:	be fb 52 40 00       	mov    $0x4052fb,%esi
  403350:	48 89 df             	mov    %rbx,%rdi
  403353:	e8 c8 e5 ff ff       	call   401920 <dlsym@plt>
  403358:	48 85 c0             	test   %rax,%rax
  40335b:	48 89 05 e6 45 20 00 	mov    %rax,0x2045e6(%rip)        # 607948 <stderr@GLIBC_2.2.5+0x178>
  403362:	0f 84 2e 05 00 00    	je     403896 <dlerror@plt+0x1f56>
  403368:	be 09 53 40 00       	mov    $0x405309,%esi
  40336d:	48 89 df             	mov    %rbx,%rdi
  403370:	e8 ab e5 ff ff       	call   401920 <dlsym@plt>
  403375:	48 85 c0             	test   %rax,%rax
  403378:	48 89 05 c1 45 20 00 	mov    %rax,0x2045c1(%rip)        # 607940 <stderr@GLIBC_2.2.5+0x170>
  40337f:	0f 84 44 05 00 00    	je     4038c9 <dlerror@plt+0x1f89>
  403385:	be 22 53 40 00       	mov    $0x405322,%esi
  40338a:	48 89 df             	mov    %rbx,%rdi
  40338d:	e8 8e e5 ff ff       	call   401920 <dlsym@plt>
  403392:	48 85 c0             	test   %rax,%rax
  403395:	48 89 05 9c 45 20 00 	mov    %rax,0x20459c(%rip)        # 607938 <stderr@GLIBC_2.2.5+0x168>
  40339c:	0f 84 16 05 00 00    	je     4038b8 <dlerror@plt+0x1f78>
  4033a2:	be 30 53 40 00       	mov    $0x405330,%esi
  4033a7:	48 89 df             	mov    %rbx,%rdi
  4033aa:	e8 71 e5 ff ff       	call   401920 <dlsym@plt>
  4033af:	48 85 c0             	test   %rax,%rax
  4033b2:	48 89 05 77 45 20 00 	mov    %rax,0x204577(%rip)        # 607930 <stderr@GLIBC_2.2.5+0x160>
  4033b9:	0f 84 2c 05 00 00    	je     4038eb <dlerror@plt+0x1fab>
  4033bf:	be 47 53 40 00       	mov    $0x405347,%esi
  4033c4:	48 89 df             	mov    %rbx,%rdi
  4033c7:	e8 54 e5 ff ff       	call   401920 <dlsym@plt>
  4033cc:	48 85 c0             	test   %rax,%rax
  4033cf:	48 89 05 52 45 20 00 	mov    %rax,0x204552(%rip)        # 607928 <stderr@GLIBC_2.2.5+0x158>
  4033d6:	0f 84 fe 04 00 00    	je     4038da <dlerror@plt+0x1f9a>
  4033dc:	be 57 53 40 00       	mov    $0x405357,%esi
  4033e1:	48 89 df             	mov    %rbx,%rdi
  4033e4:	e8 37 e5 ff ff       	call   401920 <dlsym@plt>
  4033e9:	48 85 c0             	test   %rax,%rax
  4033ec:	48 89 05 2d 45 20 00 	mov    %rax,0x20452d(%rip)        # 607920 <stderr@GLIBC_2.2.5+0x150>
  4033f3:	0f 84 14 05 00 00    	je     40390d <dlerror@plt+0x1fcd>
  4033f9:	be 66 53 40 00       	mov    $0x405366,%esi
  4033fe:	48 89 df             	mov    %rbx,%rdi
  403401:	e8 1a e5 ff ff       	call   401920 <dlsym@plt>
  403406:	48 85 c0             	test   %rax,%rax
  403409:	48 89 05 08 45 20 00 	mov    %rax,0x204508(%rip)        # 607918 <stderr@GLIBC_2.2.5+0x148>
  403410:	0f 84 e6 04 00 00    	je     4038fc <dlerror@plt+0x1fbc>
  403416:	be 74 53 40 00       	mov    $0x405374,%esi
  40341b:	48 89 df             	mov    %rbx,%rdi
  40341e:	e8 fd e4 ff ff       	call   401920 <dlsym@plt>
  403423:	48 85 c0             	test   %rax,%rax
  403426:	48 89 05 e3 44 20 00 	mov    %rax,0x2044e3(%rip)        # 607910 <stderr@GLIBC_2.2.5+0x140>
  40342d:	0f 84 fc 04 00 00    	je     40392f <dlerror@plt+0x1fef>
  403433:	be 9a 53 40 00       	mov    $0x40539a,%esi
  403438:	48 89 df             	mov    %rbx,%rdi
  40343b:	e8 e0 e4 ff ff       	call   401920 <dlsym@plt>
  403440:	48 85 c0             	test   %rax,%rax
  403443:	48 89 05 be 44 20 00 	mov    %rax,0x2044be(%rip)        # 607908 <stderr@GLIBC_2.2.5+0x138>
  40344a:	0f 84 ce 04 00 00    	je     40391e <dlerror@plt+0x1fde>
  403450:	be c4 53 40 00       	mov    $0x4053c4,%esi
  403455:	48 89 df             	mov    %rbx,%rdi
  403458:	e8 c3 e4 ff ff       	call   401920 <dlsym@plt>
  40345d:	48 85 c0             	test   %rax,%rax
  403460:	48 89 05 99 44 20 00 	mov    %rax,0x204499(%rip)        # 607900 <stderr@GLIBC_2.2.5+0x130>
  403467:	0f 84 e4 04 00 00    	je     403951 <dlerror@plt+0x2011>
  40346d:	be ea 53 40 00       	mov    $0x4053ea,%esi
  403472:	48 89 df             	mov    %rbx,%rdi
  403475:	e8 a6 e4 ff ff       	call   401920 <dlsym@plt>
  40347a:	48 85 c0             	test   %rax,%rax
  40347d:	48 89 05 74 44 20 00 	mov    %rax,0x204474(%rip)        # 6078f8 <stderr@GLIBC_2.2.5+0x128>
  403484:	0f 84 b6 04 00 00    	je     403940 <dlerror@plt+0x2000>
  40348a:	be f8 53 40 00       	mov    $0x4053f8,%esi
  40348f:	48 89 df             	mov    %rbx,%rdi
  403492:	e8 89 e4 ff ff       	call   401920 <dlsym@plt>
  403497:	48 85 c0             	test   %rax,%rax
  40349a:	48 89 05 4f 44 20 00 	mov    %rax,0x20444f(%rip)        # 6078f0 <stderr@GLIBC_2.2.5+0x120>
  4034a1:	0f 84 cc 04 00 00    	je     403973 <dlerror@plt+0x2033>
  4034a7:	be 20 54 40 00       	mov    $0x405420,%esi
  4034ac:	48 89 df             	mov    %rbx,%rdi
  4034af:	e8 6c e4 ff ff       	call   401920 <dlsym@plt>
  4034b4:	48 85 c0             	test   %rax,%rax
  4034b7:	48 89 05 2a 44 20 00 	mov    %rax,0x20442a(%rip)        # 6078e8 <stderr@GLIBC_2.2.5+0x118>
  4034be:	0f 84 9e 04 00 00    	je     403962 <dlerror@plt+0x2022>
  4034c4:	be 48 54 40 00       	mov    $0x405448,%esi
  4034c9:	48 89 df             	mov    %rbx,%rdi
  4034cc:	e8 4f e4 ff ff       	call   401920 <dlsym@plt>
  4034d1:	48 85 c0             	test   %rax,%rax
  4034d4:	48 89 05 05 44 20 00 	mov    %rax,0x204405(%rip)        # 6078e0 <stderr@GLIBC_2.2.5+0x110>
  4034db:	0f 84 b4 04 00 00    	je     403995 <dlerror@plt+0x2055>
  4034e1:	be 5a 54 40 00       	mov    $0x40545a,%esi
  4034e6:	48 89 df             	mov    %rbx,%rdi
  4034e9:	e8 32 e4 ff ff       	call   401920 <dlsym@plt>
  4034ee:	48 85 c0             	test   %rax,%rax
  4034f1:	48 89 05 e0 43 20 00 	mov    %rax,0x2043e0(%rip)        # 6078d8 <stderr@GLIBC_2.2.5+0x108>
  4034f8:	0f 84 86 04 00 00    	je     403984 <dlerror@plt+0x2044>
  4034fe:	be 6b 54 40 00       	mov    $0x40546b,%esi
  403503:	48 89 df             	mov    %rbx,%rdi
  403506:	e8 15 e4 ff ff       	call   401920 <dlsym@plt>
  40350b:	48 85 c0             	test   %rax,%rax
  40350e:	48 89 05 bb 43 20 00 	mov    %rax,0x2043bb(%rip)        # 6078d0 <stderr@GLIBC_2.2.5+0x100>
  403515:	0f 84 ad 04 00 00    	je     4039c8 <dlerror@plt+0x2088>
  40351b:	be 80 54 40 00       	mov    $0x405480,%esi
  403520:	48 89 df             	mov    %rbx,%rdi
  403523:	e8 f8 e3 ff ff       	call   401920 <dlsym@plt>
  403528:	48 85 c0             	test   %rax,%rax
  40352b:	48 89 05 96 43 20 00 	mov    %rax,0x204396(%rip)        # 6078c8 <stderr@GLIBC_2.2.5+0xf8>
  403532:	0f 84 7f 04 00 00    	je     4039b7 <dlerror@plt+0x2077>
  403538:	be aa 54 40 00       	mov    $0x4054aa,%esi
  40353d:	48 89 df             	mov    %rbx,%rdi
  403540:	e8 db e3 ff ff       	call   401920 <dlsym@plt>
  403545:	48 85 c0             	test   %rax,%rax
  403548:	48 89 05 71 43 20 00 	mov    %rax,0x204371(%rip)        # 6078c0 <stderr@GLIBC_2.2.5+0xf0>
  40354f:	0f 84 51 04 00 00    	je     4039a6 <dlerror@plt+0x2066>
  403555:	be b9 54 40 00       	mov    $0x4054b9,%esi
  40355a:	48 89 df             	mov    %rbx,%rdi
  40355d:	e8 be e3 ff ff       	call   401920 <dlsym@plt>
  403562:	48 85 c0             	test   %rax,%rax
  403565:	48 89 05 4c 43 20 00 	mov    %rax,0x20434c(%rip)        # 6078b8 <stderr@GLIBC_2.2.5+0xe8>
  40356c:	0f 84 67 04 00 00    	je     4039d9 <dlerror@plt+0x2099>
  403572:	be e3 54 40 00       	mov    $0x4054e3,%esi
  403577:	48 89 df             	mov    %rbx,%rdi
  40357a:	e8 a1 e3 ff ff       	call   401920 <dlsym@plt>
  40357f:	48 85 c0             	test   %rax,%rax
  403582:	48 89 05 27 43 20 00 	mov    %rax,0x204327(%rip)        # 6078b0 <stderr@GLIBC_2.2.5+0xe0>
  403589:	0f 84 5b 04 00 00    	je     4039ea <dlerror@plt+0x20aa>
  40358f:	be 0d 55 40 00       	mov    $0x40550d,%esi
  403594:	48 89 df             	mov    %rbx,%rdi
  403597:	e8 84 e3 ff ff       	call   401920 <dlsym@plt>
  40359c:	48 85 c0             	test   %rax,%rax
  40359f:	48 89 05 02 43 20 00 	mov    %rax,0x204302(%rip)        # 6078a8 <stderr@GLIBC_2.2.5+0xd8>
  4035a6:	0f 84 4f 04 00 00    	je     4039fb <dlerror@plt+0x20bb>
  4035ac:	be 20 55 40 00       	mov    $0x405520,%esi
  4035b1:	48 89 df             	mov    %rbx,%rdi
  4035b4:	e8 67 e3 ff ff       	call   401920 <dlsym@plt>
  4035b9:	48 85 c0             	test   %rax,%rax
  4035bc:	48 89 05 dd 42 20 00 	mov    %rax,0x2042dd(%rip)        # 6078a0 <stderr@GLIBC_2.2.5+0xd0>
  4035c3:	0f 84 43 04 00 00    	je     403a0c <dlerror@plt+0x20cc>
  4035c9:	be 38 55 40 00       	mov    $0x405538,%esi
  4035ce:	48 89 df             	mov    %rbx,%rdi
  4035d1:	e8 4a e3 ff ff       	call   401920 <dlsym@plt>
  4035d6:	48 85 c0             	test   %rax,%rax
  4035d9:	48 89 05 b8 42 20 00 	mov    %rax,0x2042b8(%rip)        # 607898 <stderr@GLIBC_2.2.5+0xc8>
  4035e0:	0f 84 37 04 00 00    	je     403a1d <dlerror@plt+0x20dd>
  4035e6:	be 4e 55 40 00       	mov    $0x40554e,%esi
  4035eb:	48 89 df             	mov    %rbx,%rdi
  4035ee:	e8 2d e3 ff ff       	call   401920 <dlsym@plt>
  4035f3:	48 85 c0             	test   %rax,%rax
  4035f6:	48 89 05 93 42 20 00 	mov    %rax,0x204293(%rip)        # 607890 <stderr@GLIBC_2.2.5+0xc0>
  4035fd:	0f 84 2b 04 00 00    	je     403a2e <dlerror@plt+0x20ee>
  403603:	be 5c 55 40 00       	mov    $0x40555c,%esi
  403608:	48 89 df             	mov    %rbx,%rdi
  40360b:	e8 10 e3 ff ff       	call   401920 <dlsym@plt>
  403610:	48 85 c0             	test   %rax,%rax
  403613:	48 89 05 6e 42 20 00 	mov    %rax,0x20426e(%rip)        # 607888 <stderr@GLIBC_2.2.5+0xb8>
  40361a:	0f 84 1f 04 00 00    	je     403a3f <dlerror@plt+0x20ff>
  403620:	be 84 55 40 00       	mov    $0x405584,%esi
  403625:	48 89 df             	mov    %rbx,%rdi
  403628:	e8 f3 e2 ff ff       	call   401920 <dlsym@plt>
  40362d:	48 85 c0             	test   %rax,%rax
  403630:	48 89 05 49 42 20 00 	mov    %rax,0x204249(%rip)        # 607880 <stderr@GLIBC_2.2.5+0xb0>
  403637:	0f 84 13 04 00 00    	je     403a50 <dlerror@plt+0x2110>
  40363d:	be 92 55 40 00       	mov    $0x405592,%esi
  403642:	48 89 df             	mov    %rbx,%rdi
  403645:	e8 d6 e2 ff ff       	call   401920 <dlsym@plt>
  40364a:	48 85 c0             	test   %rax,%rax
  40364d:	48 89 05 24 42 20 00 	mov    %rax,0x204224(%rip)        # 607878 <stderr@GLIBC_2.2.5+0xa8>
  403654:	0f 84 07 04 00 00    	je     403a61 <dlerror@plt+0x2121>
  40365a:	be a3 55 40 00       	mov    $0x4055a3,%esi
  40365f:	48 89 df             	mov    %rbx,%rdi
  403662:	e8 b9 e2 ff ff       	call   401920 <dlsym@plt>
  403667:	48 85 c0             	test   %rax,%rax
  40366a:	48 89 05 ff 41 20 00 	mov    %rax,0x2041ff(%rip)        # 607870 <stderr@GLIBC_2.2.5+0xa0>
  403671:	0f 84 0c 04 00 00    	je     403a83 <dlerror@plt+0x2143>
  403677:	be b9 55 40 00       	mov    $0x4055b9,%esi
  40367c:	48 89 df             	mov    %rbx,%rdi
  40367f:	e8 9c e2 ff ff       	call   401920 <dlsym@plt>
  403684:	48 85 c0             	test   %rax,%rax
  403687:	48 89 05 da 41 20 00 	mov    %rax,0x2041da(%rip)        # 607868 <stderr@GLIBC_2.2.5+0x98>
  40368e:	0f 84 de 03 00 00    	je     403a72 <dlerror@plt+0x2132>
  403694:	be d6 55 40 00       	mov    $0x4055d6,%esi
  403699:	48 89 df             	mov    %rbx,%rdi
  40369c:	e8 7f e2 ff ff       	call   401920 <dlsym@plt>
  4036a1:	48 85 c0             	test   %rax,%rax
  4036a4:	48 89 05 b5 41 20 00 	mov    %rax,0x2041b5(%rip)        # 607860 <stderr@GLIBC_2.2.5+0x90>
  4036ab:	0f 84 f4 03 00 00    	je     403aa5 <dlerror@plt+0x2165>
  4036b1:	be ed 55 40 00       	mov    $0x4055ed,%esi
  4036b6:	48 89 df             	mov    %rbx,%rdi
  4036b9:	e8 62 e2 ff ff       	call   401920 <dlsym@plt>
  4036be:	48 85 c0             	test   %rax,%rax
  4036c1:	48 89 05 90 41 20 00 	mov    %rax,0x204190(%rip)        # 607858 <stderr@GLIBC_2.2.5+0x88>
  4036c8:	0f 84 c6 03 00 00    	je     403a94 <dlerror@plt+0x2154>
  4036ce:	be 04 56 40 00       	mov    $0x405604,%esi
  4036d3:	48 89 df             	mov    %rbx,%rdi
  4036d6:	e8 45 e2 ff ff       	call   401920 <dlsym@plt>
  4036db:	48 85 c0             	test   %rax,%rax
  4036de:	48 89 05 6b 41 20 00 	mov    %rax,0x20416b(%rip)        # 607850 <stderr@GLIBC_2.2.5+0x80>
  4036e5:	0f 84 dc 03 00 00    	je     403ac7 <dlerror@plt+0x2187>
  4036eb:	be 11 56 40 00       	mov    $0x405611,%esi
  4036f0:	48 89 df             	mov    %rbx,%rdi
  4036f3:	e8 28 e2 ff ff       	call   401920 <dlsym@plt>
  4036f8:	48 85 c0             	test   %rax,%rax
  4036fb:	48 89 05 46 41 20 00 	mov    %rax,0x204146(%rip)        # 607848 <stderr@GLIBC_2.2.5+0x78>
  403702:	0f 84 ae 03 00 00    	je     403ab6 <dlerror@plt+0x2176>
  403708:	be 24 56 40 00       	mov    $0x405624,%esi
  40370d:	48 89 df             	mov    %rbx,%rdi
  403710:	e8 0b e2 ff ff       	call   401920 <dlsym@plt>
  403715:	48 85 c0             	test   %rax,%rax
  403718:	48 89 05 21 41 20 00 	mov    %rax,0x204121(%rip)        # 607840 <stderr@GLIBC_2.2.5+0x70>
  40371f:	0f 84 c4 03 00 00    	je     403ae9 <dlerror@plt+0x21a9>
  403725:	be 38 56 40 00       	mov    $0x405638,%esi
  40372a:	48 89 df             	mov    %rbx,%rdi
  40372d:	e8 ee e1 ff ff       	call   401920 <dlsym@plt>
  403732:	48 85 c0             	test   %rax,%rax
  403735:	48 89 05 fc 40 20 00 	mov    %rax,0x2040fc(%rip)        # 607838 <stderr@GLIBC_2.2.5+0x68>
  40373c:	0f 84 96 03 00 00    	je     403ad8 <dlerror@plt+0x2198>
  403742:	be 48 56 40 00       	mov    $0x405648,%esi
  403747:	48 89 df             	mov    %rbx,%rdi
  40374a:	e8 d1 e1 ff ff       	call   401920 <dlsym@plt>
  40374f:	48 85 c0             	test   %rax,%rax
  403752:	48 89 05 d7 40 20 00 	mov    %rax,0x2040d7(%rip)        # 607830 <stderr@GLIBC_2.2.5+0x60>
  403759:	0f 84 9b 03 00 00    	je     403afa <dlerror@plt+0x21ba>
  40375f:	be 58 56 40 00       	mov    $0x405658,%esi
  403764:	48 89 df             	mov    %rbx,%rdi
  403767:	e8 b4 e1 ff ff       	call   401920 <dlsym@plt>
  40376c:	48 85 c0             	test   %rax,%rax
  40376f:	48 89 05 b2 40 20 00 	mov    %rax,0x2040b2(%rip)        # 607828 <stderr@GLIBC_2.2.5+0x58>
  403776:	0f 84 8f 03 00 00    	je     403b0b <dlerror@plt+0x21cb>
  40377c:	be 68 56 40 00       	mov    $0x405668,%esi
  403781:	48 89 df             	mov    %rbx,%rdi
  403784:	e8 97 e1 ff ff       	call   401920 <dlsym@plt>
  403789:	48 85 c0             	test   %rax,%rax
  40378c:	48 89 05 8d 40 20 00 	mov    %rax,0x20408d(%rip)        # 607820 <stderr@GLIBC_2.2.5+0x50>
  403793:	0f 84 83 03 00 00    	je     403b1c <dlerror@plt+0x21dc>
  403799:	be 76 56 40 00       	mov    $0x405676,%esi
  40379e:	48 89 df             	mov    %rbx,%rdi
  4037a1:	e8 7a e1 ff ff       	call   401920 <dlsym@plt>
  4037a6:	48 85 c0             	test   %rax,%rax
  4037a9:	48 89 05 38 40 20 00 	mov    %rax,0x204038(%rip)        # 6077e8 <stderr@GLIBC_2.2.5+0x18>
  4037b0:	0f 84 77 03 00 00    	je     403b2d <dlerror@plt+0x21ed>
  4037b6:	be 00 5c 40 00       	mov    $0x405c00,%esi
  4037bb:	48 89 df             	mov    %rbx,%rdi
  4037be:	e8 5d e1 ff ff       	call   401920 <dlsym@plt>
  4037c3:	48 85 c0             	test   %rax,%rax
  4037c6:	48 89 05 13 40 20 00 	mov    %rax,0x204013(%rip)        # 6077e0 <stderr@GLIBC_2.2.5+0x10>
  4037cd:	0f 84 7c 03 00 00    	je     403b4f <dlerror@plt+0x220f>
  4037d3:	be 86 56 40 00       	mov    $0x405686,%esi
  4037d8:	48 89 df             	mov    %rbx,%rdi
  4037db:	e8 40 e1 ff ff       	call   401920 <dlsym@plt>
  4037e0:	48 85 c0             	test   %rax,%rax
  4037e3:	48 89 05 2e 40 20 00 	mov    %rax,0x20402e(%rip)        # 607818 <stderr@GLIBC_2.2.5+0x48>
  4037ea:	0f 84 4e 03 00 00    	je     403b3e <dlerror@plt+0x21fe>
  4037f0:	be 9b 56 40 00       	mov    $0x40569b,%esi
  4037f5:	48 89 df             	mov    %rbx,%rdi
  4037f8:	e8 23 e1 ff ff       	call   401920 <dlsym@plt>
  4037fd:	48 85 c0             	test   %rax,%rax
  403800:	48 89 05 09 40 20 00 	mov    %rax,0x204009(%rip)        # 607810 <stderr@GLIBC_2.2.5+0x40>
  403807:	0f 84 64 03 00 00    	je     403b71 <dlerror@plt+0x2231>
  40380d:	be ab 56 40 00       	mov    $0x4056ab,%esi
  403812:	48 89 df             	mov    %rbx,%rdi
  403815:	e8 06 e1 ff ff       	call   401920 <dlsym@plt>
  40381a:	48 85 c0             	test   %rax,%rax
  40381d:	48 89 05 e4 3f 20 00 	mov    %rax,0x203fe4(%rip)        # 607808 <stderr@GLIBC_2.2.5+0x38>
  403824:	0f 84 36 03 00 00    	je     403b60 <dlerror@plt+0x2220>
  40382a:	be c0 56 40 00       	mov    $0x4056c0,%esi
  40382f:	48 89 df             	mov    %rbx,%rdi
  403832:	e8 e9 e0 ff ff       	call   401920 <dlsym@plt>
  403837:	48 85 c0             	test   %rax,%rax
  40383a:	48 89 05 b7 3f 20 00 	mov    %rax,0x203fb7(%rip)        # 6077f8 <stderr@GLIBC_2.2.5+0x28>
  403841:	0f 84 4c 03 00 00    	je     403b93 <dlerror@plt+0x2253>
  403847:	be d1 56 40 00       	mov    $0x4056d1,%esi
  40384c:	48 89 df             	mov    %rbx,%rdi
  40384f:	e8 cc e0 ff ff       	call   401920 <dlsym@plt>
  403854:	48 85 c0             	test   %rax,%rax
  403857:	48 89 05 a2 3f 20 00 	mov    %rax,0x203fa2(%rip)        # 607800 <stderr@GLIBC_2.2.5+0x30>
  40385e:	0f 84 1e 03 00 00    	je     403b82 <dlerror@plt+0x2242>
  403864:	be eb 56 40 00       	mov    $0x4056eb,%esi
  403869:	48 89 df             	mov    %rbx,%rdi
  40386c:	e8 af e0 ff ff       	call   401920 <dlsym@plt>
  403871:	48 85 c0             	test   %rax,%rax
  403874:	48 89 05 75 3f 20 00 	mov    %rax,0x203f75(%rip)        # 6077f0 <stderr@GLIBC_2.2.5+0x20>
  40387b:	0f 84 23 03 00 00    	je     403ba4 <dlerror@plt+0x2264>
  403881:	31 c0                	xor    %eax,%eax
  403883:	5b                   	pop    %rbx
  403884:	c3                   	ret    
  403885:	bf 00 57 40 00       	mov    $0x405700,%edi
  40388a:	e8 11 ea ff ff       	call   4022a0 <dlerror@plt+0x960>
  40388f:	b8 ff ff ff ff       	mov    $0xffffffff,%eax
  403894:	5b                   	pop    %rbx
  403895:	c3                   	ret    
  403896:	bf 60 57 40 00       	mov    $0x405760,%edi
  40389b:	e8 00 ea ff ff       	call   4022a0 <dlerror@plt+0x960>
  4038a0:	b8 ff ff ff ff       	mov    $0xffffffff,%eax
  4038a5:	5b                   	pop    %rbx
  4038a6:	c3                   	ret    
  4038a7:	bf 30 57 40 00       	mov    $0x405730,%edi
  4038ac:	e8 ef e9 ff ff       	call   4022a0 <dlerror@plt+0x960>
  4038b1:	b8 ff ff ff ff       	mov    $0xffffffff,%eax
  4038b6:	5b                   	pop    %rbx
  4038b7:	c3                   	ret    
  4038b8:	bf b0 57 40 00       	mov    $0x4057b0,%edi
  4038bd:	e8 de e9 ff ff       	call   4022a0 <dlerror@plt+0x960>
  4038c2:	b8 ff ff ff ff       	mov    $0xffffffff,%eax
  4038c7:	5b                   	pop    %rbx
  4038c8:	c3                   	ret    
  4038c9:	bf 80 57 40 00       	mov    $0x405780,%edi
  4038ce:	e8 cd e9 ff ff       	call   4022a0 <dlerror@plt+0x960>
  4038d3:	b8 ff ff ff ff       	mov    $0xffffffff,%eax
  4038d8:	5b                   	pop    %rbx
  4038d9:	c3                   	ret    
  4038da:	bf 00 58 40 00       	mov    $0x405800,%edi
  4038df:	e8 bc e9 ff ff       	call   4022a0 <dlerror@plt+0x960>
  4038e4:	b8 ff ff ff ff       	mov    $0xffffffff,%eax
  4038e9:	5b                   	pop    %rbx
  4038ea:	c3                   	ret    
  4038eb:	bf d0 57 40 00       	mov    $0x4057d0,%edi
  4038f0:	e8 ab e9 ff ff       	call   4022a0 <dlerror@plt+0x960>
  4038f5:	b8 ff ff ff ff       	mov    $0xffffffff,%eax
  4038fa:	5b                   	pop    %rbx
  4038fb:	c3                   	ret    
  4038fc:	bf 50 58 40 00       	mov    $0x405850,%edi
  403901:	e8 9a e9 ff ff       	call   4022a0 <dlerror@plt+0x960>
  403906:	b8 ff ff ff ff       	mov    $0xffffffff,%eax
  40390b:	5b                   	pop    %rbx
  40390c:	c3                   	ret    
  40390d:	bf 28 58 40 00       	mov    $0x405828,%edi
  403912:	e8 89 e9 ff ff       	call   4022a0 <dlerror@plt+0x960>
  403917:	b8 ff ff ff ff       	mov    $0xffffffff,%eax
  40391c:	5b                   	pop    %rbx
  40391d:	c3                   	ret    
  40391e:	bf a6 53 40 00       	mov    $0x4053a6,%edi
  403923:	e8 78 e9 ff ff       	call   4022a0 <dlerror@plt+0x960>
  403928:	b8 ff ff ff ff       	mov    $0xffffffff,%eax
  40392d:	5b                   	pop    %rbx
  40392e:	c3                   	ret    
  40392f:	bf 7e 53 40 00       	mov    $0x40537e,%edi
  403934:	e8 67 e9 ff ff       	call   4022a0 <dlerror@plt+0x960>
  403939:	b8 ff ff ff ff       	mov    $0xffffffff,%eax
  40393e:	5b                   	pop    %rbx
  40393f:	c3                   	ret    
  403940:	bf 70 58 40 00       	mov    $0x405870,%edi
  403945:	e8 56 e9 ff ff       	call   4022a0 <dlerror@plt+0x960>
  40394a:	b8 ff ff ff ff       	mov    $0xffffffff,%eax
  40394f:	5b                   	pop    %rbx
  403950:	c3                   	ret    
  403951:	bf ce 53 40 00       	mov    $0x4053ce,%edi
  403956:	e8 45 e9 ff ff       	call   4022a0 <dlerror@plt+0x960>
  40395b:	b8 ff ff ff ff       	mov    $0xffffffff,%eax
  403960:	5b                   	pop    %rbx
  403961:	c3                   	ret    
  403962:	bf 2b 54 40 00       	mov    $0x40542b,%edi
  403967:	e8 34 e9 ff ff       	call   4022a0 <dlerror@plt+0x960>
  40396c:	b8 ff ff ff ff       	mov    $0xffffffff,%eax
  403971:	5b                   	pop    %rbx
  403972:	c3                   	ret    
  403973:	bf 03 54 40 00       	mov    $0x405403,%edi
  403978:	e8 23 e9 ff ff       	call   4022a0 <dlerror@plt+0x960>
  40397d:	b8 ff ff ff ff       	mov    $0xffffffff,%eax
  403982:	5b                   	pop    %rbx
  403983:	c3                   	ret    
  403984:	bf b8 58 40 00       	mov    $0x4058b8,%edi
  403989:	e8 12 e9 ff ff       	call   4022a0 <dlerror@plt+0x960>
  40398e:	b8 ff ff ff ff       	mov    $0xffffffff,%eax
  403993:	5b                   	pop    %rbx
  403994:	c3                   	ret    
  403995:	bf 90 58 40 00       	mov    $0x405890,%edi
  40399a:	e8 01 e9 ff ff       	call   4022a0 <dlerror@plt+0x960>
  40399f:	b8 ff ff ff ff       	mov    $0xffffffff,%eax
  4039a4:	5b                   	pop    %rbx
  4039a5:	c3                   	ret    
  4039a6:	bf 08 59 40 00       	mov    $0x405908,%edi
  4039ab:	e8 f0 e8 ff ff       	call   4022a0 <dlerror@plt+0x960>
  4039b0:	b8 ff ff ff ff       	mov    $0xffffffff,%eax
  4039b5:	5b                   	pop    %rbx
  4039b6:	c3                   	ret    
  4039b7:	bf 8c 54 40 00       	mov    $0x40548c,%edi
  4039bc:	e8 df e8 ff ff       	call   4022a0 <dlerror@plt+0x960>
  4039c1:	b8 ff ff ff ff       	mov    $0xffffffff,%eax
  4039c6:	5b                   	pop    %rbx
  4039c7:	c3                   	ret    
  4039c8:	bf e0 58 40 00       	mov    $0x4058e0,%edi
  4039cd:	e8 ce e8 ff ff       	call   4022a0 <dlerror@plt+0x960>
  4039d2:	b8 ff ff ff ff       	mov    $0xffffffff,%eax
  4039d7:	5b                   	pop    %rbx
  4039d8:	c3                   	ret    
  4039d9:	bf c5 54 40 00       	mov    $0x4054c5,%edi
  4039de:	e8 bd e8 ff ff       	call   4022a0 <dlerror@plt+0x960>
  4039e3:	b8 ff ff ff ff       	mov    $0xffffffff,%eax
  4039e8:	5b                   	pop    %rbx
  4039e9:	c3                   	ret    
  4039ea:	bf ef 54 40 00       	mov    $0x4054ef,%edi
  4039ef:	e8 ac e8 ff ff       	call   4022a0 <dlerror@plt+0x960>
  4039f4:	b8 ff ff ff ff       	mov    $0xffffffff,%eax
  4039f9:	5b                   	pop    %rbx
  4039fa:	c3                   	ret    
  4039fb:	bf 30 59 40 00       	mov    $0x405930,%edi
  403a00:	e8 9b e8 ff ff       	call   4022a0 <dlerror@plt+0x960>
  403a05:	b8 ff ff ff ff       	mov    $0xffffffff,%eax
  403a0a:	5b                   	pop    %rbx
  403a0b:	c3                   	ret    
  403a0c:	bf 58 59 40 00       	mov    $0x405958,%edi
  403a11:	e8 8a e8 ff ff       	call   4022a0 <dlerror@plt+0x960>
  403a16:	b8 ff ff ff ff       	mov    $0xffffffff,%eax
  403a1b:	5b                   	pop    %rbx
  403a1c:	c3                   	ret    
  403a1d:	bf 88 59 40 00       	mov    $0x405988,%edi
  403a22:	e8 79 e8 ff ff       	call   4022a0 <dlerror@plt+0x960>
  403a27:	b8 ff ff ff ff       	mov    $0xffffffff,%eax
  403a2c:	5b                   	pop    %rbx
  403a2d:	c3                   	ret    
  403a2e:	bf b0 59 40 00       	mov    $0x4059b0,%edi
  403a33:	e8 68 e8 ff ff       	call   4022a0 <dlerror@plt+0x960>
  403a38:	b8 ff ff ff ff       	mov    $0xffffffff,%eax
  403a3d:	5b                   	pop    %rbx
  403a3e:	c3                   	ret    
  403a3f:	bf 67 55 40 00       	mov    $0x405567,%edi
  403a44:	e8 57 e8 ff ff       	call   4022a0 <dlerror@plt+0x960>
  403a49:	b8 ff ff ff ff       	mov    $0xffffffff,%eax
  403a4e:	5b                   	pop    %rbx
  403a4f:	c3                   	ret    
  403a50:	bf d0 59 40 00       	mov    $0x4059d0,%edi
  403a55:	e8 46 e8 ff ff       	call   4022a0 <dlerror@plt+0x960>
  403a5a:	b8 ff ff ff ff       	mov    $0xffffffff,%eax
  403a5f:	5b                   	pop    %rbx
  403a60:	c3                   	ret    
  403a61:	bf f0 59 40 00       	mov    $0x4059f0,%edi
  403a66:	e8 35 e8 ff ff       	call   4022a0 <dlerror@plt+0x960>
  403a6b:	b8 ff ff ff ff       	mov    $0xffffffff,%eax
  403a70:	5b                   	pop    %rbx
  403a71:	c3                   	ret    
  403a72:	bf 40 5a 40 00       	mov    $0x405a40,%edi
  403a77:	e8 24 e8 ff ff       	call   4022a0 <dlerror@plt+0x960>
  403a7c:	b8 ff ff ff ff       	mov    $0xffffffff,%eax
  403a81:	5b                   	pop    %rbx
  403a82:	c3                   	ret    
  403a83:	bf 18 5a 40 00       	mov    $0x405a18,%edi
  403a88:	e8 13 e8 ff ff       	call   4022a0 <dlerror@plt+0x960>
  403a8d:	b8 ff ff ff ff       	mov    $0xffffffff,%eax
  403a92:	5b                   	pop    %rbx
  403a93:	c3                   	ret    
  403a94:	bf a0 5a 40 00       	mov    $0x405aa0,%edi
  403a99:	e8 02 e8 ff ff       	call   4022a0 <dlerror@plt+0x960>
  403a9e:	b8 ff ff ff ff       	mov    $0xffffffff,%eax
  403aa3:	5b                   	pop    %rbx
  403aa4:	c3                   	ret    
  403aa5:	bf 70 5a 40 00       	mov    $0x405a70,%edi
  403aaa:	e8 f1 e7 ff ff       	call   4022a0 <dlerror@plt+0x960>
  403aaf:	b8 ff ff ff ff       	mov    $0xffffffff,%eax
  403ab4:	5b                   	pop    %rbx
  403ab5:	c3                   	ret    
  403ab6:	bf f0 5a 40 00       	mov    $0x405af0,%edi
  403abb:	e8 e0 e7 ff ff       	call   4022a0 <dlerror@plt+0x960>
  403ac0:	b8 ff ff ff ff       	mov    $0xffffffff,%eax
  403ac5:	5b                   	pop    %rbx
  403ac6:	c3                   	ret    
  403ac7:	bf d0 5a 40 00       	mov    $0x405ad0,%edi
  403acc:	e8 cf e7 ff ff       	call   4022a0 <dlerror@plt+0x960>
  403ad1:	b8 ff ff ff ff       	mov    $0xffffffff,%eax
  403ad6:	5b                   	pop    %rbx
  403ad7:	c3                   	ret    
  403ad8:	bf 40 5b 40 00       	mov    $0x405b40,%edi
  403add:	e8 be e7 ff ff       	call   4022a0 <dlerror@plt+0x960>
  403ae2:	b8 ff ff ff ff       	mov    $0xffffffff,%eax
  403ae7:	5b                   	pop    %rbx
  403ae8:	c3                   	ret    
  403ae9:	bf 18 5b 40 00       	mov    $0x405b18,%edi
  403aee:	e8 ad e7 ff ff       	call   4022a0 <dlerror@plt+0x960>
  403af3:	b8 ff ff ff ff       	mov    $0xffffffff,%eax
  403af8:	5b                   	pop    %rbx
  403af9:	c3                   	ret    
  403afa:	bf 68 5b 40 00       	mov    $0x405b68,%edi
  403aff:	e8 9c e7 ff ff       	call   4022a0 <dlerror@plt+0x960>
  403b04:	b8 ff ff ff ff       	mov    $0xffffffff,%eax
  403b09:	5b                   	pop    %rbx
  403b0a:	c3                   	ret    
  403b0b:	bf 90 5b 40 00       	mov    $0x405b90,%edi
  403b10:	e8 8b e7 ff ff       	call   4022a0 <dlerror@plt+0x960>
  403b15:	b8 ff ff ff ff       	mov    $0xffffffff,%eax
  403b1a:	5b                   	pop    %rbx
  403b1b:	c3                   	ret    
  403b1c:	bf b8 5b 40 00       	mov    $0x405bb8,%edi
  403b21:	e8 7a e7 ff ff       	call   4022a0 <dlerror@plt+0x960>
  403b26:	b8 ff ff ff ff       	mov    $0xffffffff,%eax
  403b2b:	5b                   	pop    %rbx
  403b2c:	c3                   	ret    
  403b2d:	bf d8 5b 40 00       	mov    $0x405bd8,%edi
  403b32:	e8 69 e7 ff ff       	call   4022a0 <dlerror@plt+0x960>
  403b37:	b8 ff ff ff ff       	mov    $0xffffffff,%eax
  403b3c:	5b                   	pop    %rbx
  403b3d:	c3                   	ret    
  403b3e:	bf 58 5c 40 00       	mov    $0x405c58,%edi
  403b43:	e8 58 e7 ff ff       	call   4022a0 <dlerror@plt+0x960>
  403b48:	b8 ff ff ff ff       	mov    $0xffffffff,%eax
  403b4d:	5b                   	pop    %rbx
  403b4e:	c3                   	ret    
  403b4f:	bf 20 5c 40 00       	mov    $0x405c20,%edi
  403b54:	e8 47 e7 ff ff       	call   4022a0 <dlerror@plt+0x960>
  403b59:	b8 ff ff ff ff       	mov    $0xffffffff,%eax
  403b5e:	5b                   	pop    %rbx
  403b5f:	c3                   	ret    
  403b60:	bf a8 5c 40 00       	mov    $0x405ca8,%edi
  403b65:	e8 36 e7 ff ff       	call   4022a0 <dlerror@plt+0x960>
  403b6a:	b8 ff ff ff ff       	mov    $0xffffffff,%eax
  403b6f:	5b                   	pop    %rbx
  403b70:	c3                   	ret    
  403b71:	bf 80 5c 40 00       	mov    $0x405c80,%edi
  403b76:	e8 25 e7 ff ff       	call   4022a0 <dlerror@plt+0x960>
  403b7b:	b8 ff ff ff ff       	mov    $0xffffffff,%eax
  403b80:	5b                   	pop    %rbx
  403b81:	c3                   	ret    
  403b82:	bf f8 5c 40 00       	mov    $0x405cf8,%edi
  403b87:	e8 14 e7 ff ff       	call   4022a0 <dlerror@plt+0x960>
  403b8c:	b8 ff ff ff ff       	mov    $0xffffffff,%eax
  403b91:	5b                   	pop    %rbx
  403b92:	c3                   	ret    
  403b93:	bf d0 5c 40 00       	mov    $0x405cd0,%edi
  403b98:	e8 03 e7 ff ff       	call   4022a0 <dlerror@plt+0x960>
  403b9d:	b8 ff ff ff ff       	mov    $0xffffffff,%eax
  403ba2:	5b                   	pop    %rbx
  403ba3:	c3                   	ret    
  403ba4:	bf 28 5d 40 00       	mov    $0x405d28,%edi
  403ba9:	e8 f2 e6 ff ff       	call   4022a0 <dlerror@plt+0x960>
  403bae:	b8 ff ff ff ff       	mov    $0xffffffff,%eax
  403bb3:	5b                   	pop    %rbx
  403bb4:	c3                   	ret    
  403bb5:	66 2e 0f 1f 84 00 00 	cs nopw 0x0(%rax,%rax,1)
  403bbc:	00 00 00 
  403bbf:	90                   	nop
  403bc0:	41 56                	push   %r14
  403bc2:	41 55                	push   %r13
  403bc4:	41 54                	push   %r12
  403bc6:	55                   	push   %rbp
  403bc7:	45 31 e4             	xor    %r12d,%r12d
  403bca:	53                   	push   %rbx
  403bcb:	48 89 fd             	mov    %rdi,%rbp
  403bce:	48 81 ec 10 40 00 00 	sub    $0x4010,%rsp
  403bd5:	48 8b 05 5c 3d 20 00 	mov    0x203d5c(%rip),%rax        # 607938 <stderr@GLIBC_2.2.5+0x168>
  403bdc:	48 8b 5f 10          	mov    0x10(%rdi),%rbx
  403be0:	48 3b 5f 18          	cmp    0x18(%rdi),%rbx
  403be4:	c7 00 01 00 00 00    	movl   $0x1,(%rax)
  403bea:	48 8b 05 57 3d 20 00 	mov    0x203d57(%rip),%rax        # 607948 <stderr@GLIBC_2.2.5+0x178>
  403bf1:	c7 00 01 00 00 00    	movl   $0x1,(%rax)
  403bf7:	48 8b 05 5a 3d 20 00 	mov    0x203d5a(%rip),%rax        # 607958 <stderr@GLIBC_2.2.5+0x188>
  403bfe:	c7 00 01 00 00 00    	movl   $0x1,(%rax)
  403c04:	48 8b 05 25 3d 20 00 	mov    0x203d25(%rip),%rax        # 607930 <stderr@GLIBC_2.2.5+0x160>
  403c0b:	c7 00 01 00 00 00    	movl   $0x1,(%rax)
  403c11:	48 8b 05 28 3d 20 00 	mov    0x203d28(%rip),%rax        # 607940 <stderr@GLIBC_2.2.5+0x170>
  403c18:	c7 00 01 00 00 00    	movl   $0x1,(%rax)
  403c1e:	48 8b 05 fb 3c 20 00 	mov    0x203cfb(%rip),%rax        # 607920 <stderr@GLIBC_2.2.5+0x150>
  403c25:	c7 00 00 00 00 00    	movl   $0x0,(%rax)
  403c2b:	72 37                	jb     403c64 <dlerror@plt+0x2324>
  403c2d:	e9 f5 00 00 00       	jmp    403d27 <dlerror@plt+0x23e7>
  403c32:	66 0f 1f 44 00 00    	nopw   0x0(%rax,%rax,1)
  403c38:	3c 75                	cmp    $0x75,%al
  403c3a:	74 64                	je     403ca0 <dlerror@plt+0x2360>
  403c3c:	3c 76                	cmp    $0x76,%al
  403c3e:	75 10                	jne    403c50 <dlerror@plt+0x2310>
  403c40:	48 8b 05 d9 3c 20 00 	mov    0x203cd9(%rip),%rax        # 607920 <stderr@GLIBC_2.2.5+0x150>
  403c47:	c7 00 01 00 00 00    	movl   $0x1,(%rax)
  403c4d:	0f 1f 00             	nopl   (%rax)
  403c50:	48 89 de             	mov    %rbx,%rsi
  403c53:	48 89 ef             	mov    %rbp,%rdi
  403c56:	e8 25 df ff ff       	call   401b80 <dlerror@plt+0x240>
  403c5b:	48 39 45 18          	cmp    %rax,0x18(%rbp)
  403c5f:	48 89 c3             	mov    %rax,%rbx
  403c62:	76 7c                	jbe    403ce0 <dlerror@plt+0x23a0>
  403c64:	80 7b 11 6f          	cmpb   $0x6f,0x11(%rbx)
  403c68:	75 e6                	jne    403c50 <dlerror@plt+0x2310>
  403c6a:	48 8d 73 12          	lea    0x12(%rbx),%rsi
  403c6e:	bf 4b 5d 40 00       	mov    $0x405d4b,%edi
  403c73:	b9 04 00 00 00       	mov    $0x4,%ecx
  403c78:	f3 a6                	repz cmpsb %es:(%rdi),%ds:(%rsi)
  403c7a:	74 d4                	je     403c50 <dlerror@plt+0x2310>
  403c7c:	0f b6 43 12          	movzbl 0x12(%rbx),%eax
  403c80:	3c 57                	cmp    $0x57,%al
  403c82:	74 2c                	je     403cb0 <dlerror@plt+0x2370>
  403c84:	7f b2                	jg     403c38 <dlerror@plt+0x22f8>
  403c86:	3c 4f                	cmp    $0x4f,%al
  403c88:	75 c6                	jne    403c50 <dlerror@plt+0x2310>
  403c8a:	48 8b 05 97 3c 20 00 	mov    0x203c97(%rip),%rax        # 607928 <stderr@GLIBC_2.2.5+0x158>
  403c91:	c7 00 01 00 00 00    	movl   $0x1,(%rax)
  403c97:	eb b7                	jmp    403c50 <dlerror@plt+0x2310>
  403c99:	0f 1f 80 00 00 00 00 	nopl   0x0(%rax)
  403ca0:	41 bc 01 00 00 00    	mov    $0x1,%r12d
  403ca6:	eb a8                	jmp    403c50 <dlerror@plt+0x2310>
  403ca8:	0f 1f 84 00 00 00 00 	nopl   0x0(%rax,%rax,1)
  403caf:	00 
  403cb0:	4c 8d 73 14          	lea    0x14(%rbx),%r14
  403cb4:	ba 00 10 00 00       	mov    $0x1000,%edx
  403cb9:	48 89 e7             	mov    %rsp,%rdi
  403cbc:	4c 89 f6             	mov    %r14,%rsi
  403cbf:	e8 0c d9 ff ff       	call   4015d0 <mbstowcs@plt>
  403cc4:	48 83 f8 ff          	cmp    $0xffffffffffffffff,%rax
  403cc8:	49 89 c5             	mov    %rax,%r13
  403ccb:	74 6c                	je     403d39 <dlerror@plt+0x23f9>
  403ccd:	48 89 e7             	mov    %rsp,%rdi
  403cd0:	ff 15 6a 3b 20 00    	call   *0x203b6a(%rip)        # 607840 <stderr@GLIBC_2.2.5+0x70>
  403cd6:	e9 75 ff ff ff       	jmp    403c50 <dlerror@plt+0x2310>
  403cdb:	0f 1f 44 00 00       	nopl   0x0(%rax,%rax,1)
  403ce0:	45 85 e4             	test   %r12d,%r12d
  403ce3:	74 42                	je     403d27 <dlerror@plt+0x23e7>
  403ce5:	48 8b 3d d4 3a 20 00 	mov    0x203ad4(%rip),%rdi        # 6077c0 <stdout@GLIBC_2.2.5>
  403cec:	e8 0f db ff ff       	call   401800 <fflush@plt>
  403cf1:	48 8b 3d d8 3a 20 00 	mov    0x203ad8(%rip),%rdi        # 6077d0 <stderr@GLIBC_2.2.5>
  403cf8:	e8 03 db ff ff       	call   401800 <fflush@plt>
  403cfd:	48 8b 3d c4 3a 20 00 	mov    0x203ac4(%rip),%rdi        # 6077c8 <stdin@GLIBC_2.2.5>
  403d04:	31 f6                	xor    %esi,%esi
  403d06:	e8 45 d9 ff ff       	call   401650 <setbuf@plt>
  403d0b:	48 8b 3d ae 3a 20 00 	mov    0x203aae(%rip),%rdi        # 6077c0 <stdout@GLIBC_2.2.5>
  403d12:	31 f6                	xor    %esi,%esi
  403d14:	e8 37 d9 ff ff       	call   401650 <setbuf@plt>
  403d19:	48 8b 3d b0 3a 20 00 	mov    0x203ab0(%rip),%rdi        # 6077d0 <stderr@GLIBC_2.2.5>
  403d20:	31 f6                	xor    %esi,%esi
  403d22:	e8 29 d9 ff ff       	call   401650 <setbuf@plt>
  403d27:	31 c0                	xor    %eax,%eax
  403d29:	48 81 c4 10 40 00 00 	add    $0x4010,%rsp
  403d30:	5b                   	pop    %rbx
  403d31:	5d                   	pop    %rbp
  403d32:	41 5c                	pop    %r12
  403d34:	41 5d                	pop    %r13
  403d36:	41 5e                	pop    %r14
  403d38:	c3                   	ret    
  403d39:	31 c0                	xor    %eax,%eax
  403d3b:	4c 89 f6             	mov    %r14,%rsi
  403d3e:	bf d0 5d 40 00       	mov    $0x405dd0,%edi
  403d43:	e8 58 e5 ff ff       	call   4022a0 <dlerror@plt+0x960>
  403d48:	44 89 e8             	mov    %r13d,%eax
  403d4b:	eb dc                	jmp    403d29 <dlerror@plt+0x23e9>
  403d4d:	0f 1f 00             	nopl   (%rax)
  403d50:	55                   	push   %rbp
  403d51:	53                   	push   %rbx
  403d52:	48 8d 6f 38          	lea    0x38(%rdi),%rbp
  403d56:	be 40 00 00 00       	mov    $0x40,%esi
  403d5b:	31 c0                	xor    %eax,%eax
  403d5d:	48 89 fb             	mov    %rdi,%rbx
  403d60:	48 81 ec 48 10 00 00 	sub    $0x1048,%rsp
  403d67:	48 89 e9             	mov    %rbp,%rcx
  403d6a:	ba a0 5d 40 00       	mov    $0x405da0,%edx
  403d6f:	48 89 e7             	mov    %rsp,%rdi
  403d72:	e8 f9 d8 ff ff       	call   401670 <snprintf@plt>
  403d77:	48 63 f0             	movslq %eax,%rsi
  403d7a:	48 83 fe 3f          	cmp    $0x3f,%rsi
  403d7e:	77 60                	ja     403de0 <dlerror@plt+0x24a0>
  403d80:	48 81 c3 78 30 00 00 	add    $0x3078,%rbx
  403d87:	48 8d 7c 24 40       	lea    0x40(%rsp),%rdi
  403d8c:	48 89 e2             	mov    %rsp,%rdx
  403d8f:	48 89 de             	mov    %rbx,%rsi
  403d92:	e8 c9 f2 ff ff       	call   403060 <dlerror@plt+0x1720>
  403d97:	48 85 c0             	test   %rax,%rax
  403d9a:	74 2c                	je     403dc8 <dlerror@plt+0x2488>
  403d9c:	48 8d 7c 24 40       	lea    0x40(%rsp),%rdi
  403da1:	e8 9a 0e 00 00       	call   404c40 <dlerror@plt+0x3300>
  403da6:	48 85 c0             	test   %rax,%rax
  403da9:	74 50                	je     403dfb <dlerror@plt+0x24bb>
  403dab:	8b 35 2b 3a 20 00    	mov    0x203a2b(%rip),%esi        # 6077dc <stderr@GLIBC_2.2.5+0xc>
  403db1:	48 89 c7             	mov    %rax,%rdi
  403db4:	e8 57 f5 ff ff       	call   403310 <dlerror@plt+0x19d0>
  403db9:	48 81 c4 48 10 00 00 	add    $0x1048,%rsp
  403dc0:	5b                   	pop    %rbx
  403dc1:	5d                   	pop    %rbp
  403dc2:	c3                   	ret    
  403dc3:	0f 1f 44 00 00       	nopl   0x0(%rax,%rax,1)
  403dc8:	ba 00 10 00 00       	mov    $0x1000,%edx
  403dcd:	48 89 de             	mov    %rbx,%rsi
  403dd0:	bf 60 5e 40 00       	mov    $0x405e60,%edi
  403dd5:	e8 c6 e4 ff ff       	call   4022a0 <dlerror@plt+0x960>
  403dda:	eb c0                	jmp    403d9c <dlerror@plt+0x245c>
  403ddc:	0f 1f 40 00          	nopl   0x0(%rax)
  403de0:	31 c0                	xor    %eax,%eax
  403de2:	b9 40 00 00 00       	mov    $0x40,%ecx
  403de7:	48 89 ea             	mov    %rbp,%rdx
  403dea:	bf 18 5e 40 00       	mov    $0x405e18,%edi
  403def:	e8 ac e4 ff ff       	call   4022a0 <dlerror@plt+0x960>
  403df4:	b8 ff ff ff ff       	mov    $0xffffffff,%eax
  403df9:	eb be                	jmp    403db9 <dlerror@plt+0x2479>
  403dfb:	e8 40 db ff ff       	call   401940 <dlerror@plt>
  403e00:	48 8d 74 24 40       	lea    0x40(%rsp),%rsi
  403e05:	48 89 c2             	mov    %rax,%rdx
  403e08:	bf 98 5e 40 00       	mov    $0x405e98,%edi
  403e0d:	31 c0                	xor    %eax,%eax
  403e0f:	e8 8c e4 ff ff       	call   4022a0 <dlerror@plt+0x960>
  403e14:	b8 ff ff ff ff       	mov    $0xffffffff,%eax
  403e19:	eb 9e                	jmp    403db9 <dlerror@plt+0x2479>
  403e1b:	0f 1f 44 00 00       	nopl   0x0(%rax,%rax,1)
  403e20:	31 c0                	xor    %eax,%eax
  403e22:	c3                   	ret    
  403e23:	66 66 66 66 2e 0f 1f 	data16 data16 data16 cs nopw 0x0(%rax,%rax,1)
  403e2a:	84 00 00 00 00 00 
  403e30:	55                   	push   %rbp
  403e31:	53                   	push   %rbx
  403e32:	48 89 fd             	mov    %rdi,%rbp
  403e35:	48 89 eb             	mov    %rbp,%rbx
  403e38:	48 83 ec 08          	sub    $0x8,%rsp
  403e3c:	48 8b 3f             	mov    (%rdi),%rdi
  403e3f:	48 85 ff             	test   %rdi,%rdi
  403e42:	74 15                	je     403e59 <dlerror@plt+0x2519>
  403e44:	0f 1f 40 00          	nopl   0x0(%rax)
  403e48:	48 83 c3 08          	add    $0x8,%rbx
  403e4c:	e8 df d6 ff ff       	call   401530 <free@plt>
  403e51:	48 8b 3b             	mov    (%rbx),%rdi
  403e54:	48 85 ff             	test   %rdi,%rdi
  403e57:	75 ef                	jne    403e48 <dlerror@plt+0x2508>
  403e59:	48 83 c4 08          	add    $0x8,%rsp
  403e5d:	48 89 ef             	mov    %rbp,%rdi
  403e60:	5b                   	pop    %rbx
  403e61:	5d                   	pop    %rbp
  403e62:	e9 c9 d6 ff ff       	jmp    401530 <free@plt>
  403e67:	66 0f 1f 84 00 00 00 	nopw   0x0(%rax,%rax,1)
  403e6e:	00 00 
  403e70:	41 57                	push   %r15
  403e72:	41 56                	push   %r14
  403e74:	41 55                	push   %r13
  403e76:	41 54                	push   %r12
  403e78:	49 89 f5             	mov    %rsi,%r13
  403e7b:	55                   	push   %rbp
  403e7c:	53                   	push   %rbx
  403e7d:	31 f6                	xor    %esi,%esi
  403e7f:	89 fb                	mov    %edi,%ebx
  403e81:	31 ff                	xor    %edi,%edi
  403e83:	48 83 ec 18          	sub    $0x18,%rsp
  403e87:	e8 d4 d9 ff ff       	call   401860 <setlocale@plt>
  403e8c:	48 89 c7             	mov    %rax,%rdi
  403e8f:	e8 2c d8 ff ff       	call   4016c0 <__strdup@plt>
  403e94:	48 85 c0             	test   %rax,%rax
  403e97:	49 89 c7             	mov    %rax,%r15
  403e9a:	0f 84 da 00 00 00    	je     403f7a <dlerror@plt+0x263a>
  403ea0:	44 8d 73 01          	lea    0x1(%rbx),%r14d
  403ea4:	be 01 00 00 00       	mov    $0x1,%esi
  403ea9:	4d 63 f6             	movslq %r14d,%r14
  403eac:	4a 8d 04 f5 00 00 00 	lea    0x0(,%r14,8),%rax
  403eb3:	00 
  403eb4:	48 89 c7             	mov    %rax,%rdi
  403eb7:	48 89 44 24 08       	mov    %rax,0x8(%rsp)
  403ebc:	e8 2f d8 ff ff       	call   4016f0 <calloc@plt>
  403ec1:	48 85 c0             	test   %rax,%rax
  403ec4:	48 89 c5             	mov    %rax,%rbp
  403ec7:	0f 84 ad 00 00 00    	je     403f7a <dlerror@plt+0x263a>
  403ecd:	31 ff                	xor    %edi,%edi
  403ecf:	be d9 4f 40 00       	mov    $0x404fd9,%esi
  403ed4:	e8 87 d9 ff ff       	call   401860 <setlocale@plt>
  403ed9:	85 db                	test   %ebx,%ebx
  403edb:	7e 6b                	jle    403f48 <dlerror@plt+0x2608>
  403edd:	83 eb 01             	sub    $0x1,%ebx
  403ee0:	45 31 f6             	xor    %r14d,%r14d
  403ee3:	48 83 c3 01          	add    $0x1,%rbx
  403ee7:	eb 10                	jmp    403ef9 <dlerror@plt+0x25b9>
  403ee9:	0f 1f 80 00 00 00 00 	nopl   0x0(%rax)
  403ef0:	49 83 c6 01          	add    $0x1,%r14
  403ef4:	49 39 de             	cmp    %rbx,%r14
  403ef7:	74 4f                	je     403f48 <dlerror@plt+0x2608>
  403ef9:	31 f6                	xor    %esi,%esi
  403efb:	4b 8b 7c f5 00       	mov    0x0(%r13,%r14,8),%rdi
  403f00:	ff 15 0a 39 20 00    	call   *0x20390a(%rip)        # 607810 <stderr@GLIBC_2.2.5+0x40>
  403f06:	48 85 c0             	test   %rax,%rax
  403f09:	4a 89 44 f5 00       	mov    %rax,0x0(%rbp,%r14,8)
  403f0e:	75 e0                	jne    403ef0 <dlerror@plt+0x25b0>
  403f10:	48 89 ef             	mov    %rbp,%rdi
  403f13:	e8 18 ff ff ff       	call   403e30 <dlerror@plt+0x24f0>
  403f18:	4c 89 ff             	mov    %r15,%rdi
  403f1b:	e8 10 d6 ff ff       	call   401530 <free@plt>
  403f20:	41 8d 76 01          	lea    0x1(%r14),%esi
  403f24:	31 c0                	xor    %eax,%eax
  403f26:	bf c8 5e 40 00       	mov    $0x405ec8,%edi
  403f2b:	e8 70 e3 ff ff       	call   4022a0 <dlerror@plt+0x960>
  403f30:	31 c0                	xor    %eax,%eax
  403f32:	48 83 c4 18          	add    $0x18,%rsp
  403f36:	5b                   	pop    %rbx
  403f37:	5d                   	pop    %rbp
  403f38:	41 5c                	pop    %r12
  403f3a:	41 5d                	pop    %r13
  403f3c:	41 5e                	pop    %r14
  403f3e:	41 5f                	pop    %r15
  403f40:	c3                   	ret    
  403f41:	0f 1f 80 00 00 00 00 	nopl   0x0(%rax)
  403f48:	48 8b 44 24 08       	mov    0x8(%rsp),%rax
  403f4d:	4c 89 fe             	mov    %r15,%rsi
  403f50:	31 ff                	xor    %edi,%edi
  403f52:	48 c7 44 05 f8 00 00 	movq   $0x0,-0x8(%rbp,%rax,1)
  403f59:	00 00 
  403f5b:	e8 00 d9 ff ff       	call   401860 <setlocale@plt>
  403f60:	4c 89 ff             	mov    %r15,%rdi
  403f63:	e8 c8 d5 ff ff       	call   401530 <free@plt>
  403f68:	48 83 c4 18          	add    $0x18,%rsp
  403f6c:	48 89 e8             	mov    %rbp,%rax
  403f6f:	5b                   	pop    %rbx
  403f70:	5d                   	pop    %rbp
  403f71:	41 5c                	pop    %r12
  403f73:	41 5d                	pop    %r13
  403f75:	41 5e                	pop    %r14
  403f77:	41 5f                	pop    %r15
  403f79:	c3                   	ret    
  403f7a:	31 c0                	xor    %eax,%eax
  403f7c:	bf 50 5d 40 00       	mov    $0x405d50,%edi
  403f81:	e8 1a e3 ff ff       	call   4022a0 <dlerror@plt+0x960>
  403f86:	31 c0                	xor    %eax,%eax
  403f88:	eb a8                	jmp    403f32 <dlerror@plt+0x25f2>
  403f8a:	66 0f 1f 44 00 00    	nopw   0x0(%rax,%rax,1)
  403f90:	55                   	push   %rbp
  403f91:	53                   	push   %rbx
  403f92:	48 89 f5             	mov    %rsi,%rbp
  403f95:	48 89 fb             	mov    %rdi,%rbx
  403f98:	31 f6                	xor    %esi,%esi
  403f9a:	31 ff                	xor    %edi,%edi
  403f9c:	48 83 ec 18          	sub    $0x18,%rsp
  403fa0:	48 89 54 24 08       	mov    %rdx,0x8(%rsp)
  403fa5:	e8 b6 d8 ff ff       	call   401860 <setlocale@plt>
  403faa:	48 89 c7             	mov    %rax,%rdi
  403fad:	e8 0e d7 ff ff       	call   4016c0 <__strdup@plt>
  403fb2:	31 ff                	xor    %edi,%edi
  403fb4:	be d9 4f 40 00       	mov    $0x404fd9,%esi
  403fb9:	48 89 05 98 1a 21 00 	mov    %rax,0x211a98(%rip)        # 615a58 <stderr@GLIBC_2.2.5+0xe288>
  403fc0:	e8 9b d8 ff ff       	call   401860 <setlocale@plt>
  403fc5:	48 89 ef             	mov    %rbp,%rdi
  403fc8:	48 8d 74 24 08       	lea    0x8(%rsp),%rsi
  403fcd:	ff 15 3d 38 20 00    	call   *0x20383d(%rip)        # 607810 <stderr@GLIBC_2.2.5+0x40>
  403fd3:	48 8b 35 7e 1a 21 00 	mov    0x211a7e(%rip),%rsi        # 615a58 <stderr@GLIBC_2.2.5+0xe288>
  403fda:	48 89 c5             	mov    %rax,%rbp
  403fdd:	31 ff                	xor    %edi,%edi
  403fdf:	e8 7c d8 ff ff       	call   401860 <setlocale@plt>
  403fe4:	48 85 ed             	test   %rbp,%rbp
  403fe7:	74 27                	je     404010 <dlerror@plt+0x26d0>
  403fe9:	48 8b 54 24 08       	mov    0x8(%rsp),%rdx
  403fee:	48 89 ee             	mov    %rbp,%rsi
  403ff1:	48 89 df             	mov    %rbx,%rdi
  403ff4:	e8 e7 d6 ff ff       	call   4016e0 <wcsncpy@plt>
  403ff9:	48 89 ef             	mov    %rbp,%rdi
  403ffc:	e8 2f d5 ff ff       	call   401530 <free@plt>
  404001:	48 89 d8             	mov    %rbx,%rax
  404004:	48 83 c4 18          	add    $0x18,%rsp
  404008:	5b                   	pop    %rbx
  404009:	5d                   	pop    %rbp
  40400a:	c3                   	ret    
  40400b:	0f 1f 44 00 00       	nopl   0x0(%rax,%rax,1)
  404010:	31 c0                	xor    %eax,%eax
  404012:	eb f0                	jmp    404004 <dlerror@plt+0x26c4>
  404014:	66 66 66 2e 0f 1f 84 	data16 data16 cs nopw 0x0(%rax,%rax,1)
  40401b:	00 00 00 00 00 
  404020:	55                   	push   %rbp
  404021:	53                   	push   %rbx
  404022:	48 8d 77 78          	lea    0x78(%rdi),%rsi
  404026:	48 89 fb             	mov    %rdi,%rbx
  404029:	ba 00 10 00 00       	mov    $0x1000,%edx
  40402e:	bf 40 1a 61 00       	mov    $0x611a40,%edi
  404033:	48 83 ec 08          	sub    $0x8,%rsp
  404037:	e8 54 ff ff ff       	call   403f90 <dlerror@plt+0x2650>
  40403c:	48 85 c0             	test   %rax,%rax
  40403f:	0f 84 36 01 00 00    	je     40417b <dlerror@plt+0x283b>
  404045:	48 8d ab 78 30 00 00 	lea    0x3078(%rbx),%rbp
  40404c:	bf 40 1a 61 00       	mov    $0x611a40,%edi
  404051:	ff 15 89 38 20 00    	call   *0x203889(%rip)        # 6078e0 <stderr@GLIBC_2.2.5+0x110>
  404057:	ba 00 10 00 00       	mov    $0x1000,%edx
  40405c:	48 89 ee             	mov    %rbp,%rsi
  40405f:	bf 00 da 60 00       	mov    $0x60da00,%edi
  404064:	e8 27 ff ff ff       	call   403f90 <dlerror@plt+0x2650>
  404069:	48 85 c0             	test   %rax,%rax
  40406c:	0f 84 1a 01 00 00    	je     40418c <dlerror@plt+0x284c>
  404072:	bf 00 da 60 00       	mov    $0x60da00,%edi
  404077:	ff 15 5b 38 20 00    	call   *0x20385b(%rip)        # 6078d8 <stderr@GLIBC_2.2.5+0x108>
  40407d:	48 83 ec 08          	sub    $0x8,%rsp
  404081:	31 c0                	xor    %eax,%eax
  404083:	49 89 e9             	mov    %rbp,%r9
  404086:	55                   	push   %rbp
  404087:	6a 3a                	push   $0x3a
  404089:	41 b8 5f 5d 40 00    	mov    $0x405d5f,%r8d
  40408f:	6a 2f                	push   $0x2f
  404091:	b9 0e 20 00 00       	mov    $0x200e,%ecx
  404096:	ba 01 00 00 00       	mov    $0x1,%edx
  40409b:	be 0e 20 00 00       	mov    $0x200e,%esi
  4040a0:	bf c0 b9 60 00       	mov    $0x60b9c0,%edi
  4040a5:	e8 66 d4 ff ff       	call   401510 <__snprintf_chk@plt>
  4040aa:	48 83 c4 20          	add    $0x20,%rsp
  4040ae:	3d 0d 20 00 00       	cmp    $0x200d,%eax
  4040b3:	0f 87 a7 00 00 00    	ja     404160 <dlerror@plt+0x2820>
  4040b9:	ba 00 10 00 00       	mov    $0x1000,%edx
  4040be:	be c0 b9 60 00       	mov    $0x60b9c0,%esi
  4040c3:	bf 80 79 60 00       	mov    $0x607980,%edi
  4040c8:	e8 c3 fe ff ff       	call   403f90 <dlerror@plt+0x2650>
  4040cd:	48 85 c0             	test   %rax,%rax
  4040d0:	0f 84 da 00 00 00    	je     4041b0 <dlerror@plt+0x2870>
  4040d6:	bf 80 79 60 00       	mov    $0x607980,%edi
  4040db:	ff 15 0f 38 20 00    	call   *0x20380f(%rip)        # 6078f0 <stderr@GLIBC_2.2.5+0x120>
  4040e1:	48 89 df             	mov    %rbx,%rdi
  4040e4:	e8 d7 fa ff ff       	call   403bc0 <dlerror@plt+0x2280>
  4040e9:	ff 15 09 38 20 00    	call   *0x203809(%rip)        # 6078f8 <stderr@GLIBC_2.2.5+0x128>
  4040ef:	bf 80 79 60 00       	mov    $0x607980,%edi
  4040f4:	ff 15 26 37 20 00    	call   *0x203726(%rip)        # 607820 <stderr@GLIBC_2.2.5+0x50>
  4040fa:	48 8b b3 88 40 00 00 	mov    0x4088(%rbx),%rsi
  404101:	8b bb 80 40 00 00    	mov    0x4080(%rbx),%edi
  404107:	e8 64 fd ff ff       	call   403e70 <dlerror@plt+0x2530>
  40410c:	48 85 c0             	test   %rax,%rax
  40410f:	48 89 c5             	mov    %rax,%rbp
  404112:	0f 84 85 00 00 00    	je     40419d <dlerror@plt+0x285d>
  404118:	31 d2                	xor    %edx,%edx
  40411a:	48 89 c6             	mov    %rax,%rsi
  40411d:	8b bb 80 40 00 00    	mov    0x4080(%rbx),%edi
  404123:	ff 15 0f 37 20 00    	call   *0x20370f(%rip)        # 607838 <stderr@GLIBC_2.2.5+0x68>
  404129:	48 89 ef             	mov    %rbp,%rdi
  40412c:	e8 ff fc ff ff       	call   403e30 <dlerror@plt+0x24f0>
  404131:	ff 15 89 37 20 00    	call   *0x203789(%rip)        # 6078c0 <stderr@GLIBC_2.2.5+0xf0>
  404137:	48 85 c0             	test   %rax,%rax
  40413a:	75 0c                	jne    404148 <dlerror@plt+0x2808>
  40413c:	48 83 c4 08          	add    $0x8,%rsp
  404140:	5b                   	pop    %rbx
  404141:	5d                   	pop    %rbp
  404142:	c3                   	ret    
  404143:	0f 1f 44 00 00       	nopl   0x0(%rax,%rax,1)
  404148:	31 c0                	xor    %eax,%eax
  40414a:	bf e0 5f 40 00       	mov    $0x405fe0,%edi
  40414f:	e8 4c e1 ff ff       	call   4022a0 <dlerror@plt+0x960>
  404154:	b8 ff ff ff ff       	mov    $0xffffffff,%eax
  404159:	eb e1                	jmp    40413c <dlerror@plt+0x27fc>
  40415b:	0f 1f 44 00 00       	nopl   0x0(%rax,%rax,1)
  404160:	31 c0                	xor    %eax,%eax
  404162:	ba 0e 20 00 00       	mov    $0x200e,%edx
  404167:	48 89 ee             	mov    %rbp,%rsi
  40416a:	bf 58 5f 40 00       	mov    $0x405f58,%edi
  40416f:	e8 2c e1 ff ff       	call   4022a0 <dlerror@plt+0x960>
  404174:	b8 ff ff ff ff       	mov    $0xffffffff,%eax
  404179:	eb c1                	jmp    40413c <dlerror@plt+0x27fc>
  40417b:	bf 08 5f 40 00       	mov    $0x405f08,%edi
  404180:	e8 1b e1 ff ff       	call   4022a0 <dlerror@plt+0x960>
  404185:	b8 ff ff ff ff       	mov    $0xffffffff,%eax
  40418a:	eb b0                	jmp    40413c <dlerror@plt+0x27fc>
  40418c:	bf 30 5f 40 00       	mov    $0x405f30,%edi
  404191:	e8 0a e1 ff ff       	call   4022a0 <dlerror@plt+0x960>
  404196:	b8 ff ff ff ff       	mov    $0xffffffff,%eax
  40419b:	eb 9f                	jmp    40413c <dlerror@plt+0x27fc>
  40419d:	31 c0                	xor    %eax,%eax
  40419f:	bf b8 5f 40 00       	mov    $0x405fb8,%edi
  4041a4:	e8 f7 e0 ff ff       	call   4022a0 <dlerror@plt+0x960>
  4041a9:	b8 ff ff ff ff       	mov    $0xffffffff,%eax
  4041ae:	eb 8c                	jmp    40413c <dlerror@plt+0x27fc>
  4041b0:	bf 90 5f 40 00       	mov    $0x405f90,%edi
  4041b5:	e8 e6 e0 ff ff       	call   4022a0 <dlerror@plt+0x960>
  4041ba:	b8 ff ff ff ff       	mov    $0xffffffff,%eax
  4041bf:	e9 78 ff ff ff       	jmp    40413c <dlerror@plt+0x27fc>
  4041c4:	66 66 66 2e 0f 1f 84 	data16 data16 cs nopw 0x0(%rax,%rax,1)
  4041cb:	00 00 00 00 00 
  4041d0:	41 56                	push   %r14
  4041d2:	41 55                	push   %r13
  4041d4:	41 54                	push   %r12
  4041d6:	55                   	push   %rbp
  4041d7:	48 89 fd             	mov    %rdi,%rbp
  4041da:	53                   	push   %rbx
  4041db:	48 8d bf 78 30 00 00 	lea    0x3078(%rdi),%rdi
  4041e2:	ff 15 18 36 20 00    	call   *0x203618(%rip)        # 607800 <stderr@GLIBC_2.2.5+0x30>
  4041e8:	48 85 c0             	test   %rax,%rax
  4041eb:	0f 84 22 01 00 00    	je     404313 <dlerror@plt+0x29d3>
  4041f1:	48 89 c6             	mov    %rax,%rsi
  4041f4:	bf 78 5d 40 00       	mov    $0x405d78,%edi
  4041f9:	ff 15 29 36 20 00    	call   *0x203629(%rip)        # 607828 <stderr@GLIBC_2.2.5+0x58>
  4041ff:	bf 81 5d 40 00       	mov    $0x405d81,%edi
  404204:	ff 15 8e 36 20 00    	call   *0x20368e(%rip)        # 607898 <stderr@GLIBC_2.2.5+0xc8>
  40420a:	48 89 c7             	mov    %rax,%rdi
  40420d:	ff 15 65 36 20 00    	call   *0x203665(%rip)        # 607878 <stderr@GLIBC_2.2.5+0xa8>
  404213:	be 89 5d 40 00       	mov    $0x405d89,%esi
  404218:	48 89 c7             	mov    %rax,%rdi
  40421b:	ff 15 af 36 20 00    	call   *0x2036af(%rip)        # 6078d0 <stderr@GLIBC_2.2.5+0x100>
  404221:	48 8b 5d 10          	mov    0x10(%rbp),%rbx
  404225:	48 3b 5d 18          	cmp    0x18(%rbp),%rbx
  404229:	49 89 c5             	mov    %rax,%r13
  40422c:	72 22                	jb     404250 <dlerror@plt+0x2910>
  40422e:	e9 d5 00 00 00       	jmp    404308 <dlerror@plt+0x29c8>
  404233:	0f 1f 44 00 00       	nopl   0x0(%rax,%rax,1)
  404238:	48 89 de             	mov    %rbx,%rsi
  40423b:	48 89 ef             	mov    %rbp,%rdi
  40423e:	e8 3d d9 ff ff       	call   401b80 <dlerror@plt+0x240>
  404243:	48 39 45 18          	cmp    %rax,0x18(%rbp)
  404247:	48 89 c3             	mov    %rax,%rbx
  40424a:	0f 86 b8 00 00 00    	jbe    404308 <dlerror@plt+0x29c8>
  404250:	0f b6 53 11          	movzbl 0x11(%rbx),%edx
  404254:	83 e2 df             	and    $0xffffffdf,%edx
  404257:	80 fa 4d             	cmp    $0x4d,%dl
  40425a:	75 dc                	jne    404238 <dlerror@plt+0x28f8>
  40425c:	48 89 de             	mov    %rbx,%rsi
  40425f:	48 89 ef             	mov    %rbp,%rdi
  404262:	e8 49 d9 ff ff       	call   401bb0 <dlerror@plt+0x270>
  404267:	83 3d 6e 35 20 00 24 	cmpl   $0x24,0x20356e(%rip)        # 6077dc <stderr@GLIBC_2.2.5+0xc>
  40426e:	8b 4b 0c             	mov    0xc(%rbx),%ecx
  404271:	49 89 c4             	mov    %rax,%r12
  404274:	0f c9                	bswap  %ecx
  404276:	7e 58                	jle    4042d0 <dlerror@plt+0x2990>
  404278:	83 e9 10             	sub    $0x10,%ecx
  40427b:	48 8d 50 10          	lea    0x10(%rax),%rdx
  40427f:	be 8f 5d 40 00       	mov    $0x405d8f,%esi
  404284:	31 c0                	xor    %eax,%eax
  404286:	4c 89 ef             	mov    %r13,%rdi
  404289:	4c 8d 73 12          	lea    0x12(%rbx),%r14
  40428d:	ff 15 dd 35 20 00    	call   *0x2035dd(%rip)        # 607870 <stderr@GLIBC_2.2.5+0xa0>
  404293:	48 85 c0             	test   %rax,%rax
  404296:	74 58                	je     4042f0 <dlerror@plt+0x29b0>
  404298:	48 89 c6             	mov    %rax,%rsi
  40429b:	4c 89 f7             	mov    %r14,%rdi
  40429e:	ff 15 fc 35 20 00    	call   *0x2035fc(%rip)        # 6078a0 <stderr@GLIBC_2.2.5+0xd0>
  4042a4:	48 85 c0             	test   %rax,%rax
  4042a7:	74 47                	je     4042f0 <dlerror@plt+0x29b0>
  4042a9:	ff 15 11 36 20 00    	call   *0x203611(%rip)        # 6078c0 <stderr@GLIBC_2.2.5+0xf0>
  4042af:	48 85 c0             	test   %rax,%rax
  4042b2:	74 0c                	je     4042c0 <dlerror@plt+0x2980>
  4042b4:	ff 15 fe 35 20 00    	call   *0x2035fe(%rip)        # 6078b8 <stderr@GLIBC_2.2.5+0xe8>
  4042ba:	ff 15 08 36 20 00    	call   *0x203608(%rip)        # 6078c8 <stderr@GLIBC_2.2.5+0xf8>
  4042c0:	4c 89 e7             	mov    %r12,%rdi
  4042c3:	e8 68 d2 ff ff       	call   401530 <free@plt>
  4042c8:	e9 6b ff ff ff       	jmp    404238 <dlerror@plt+0x28f8>
  4042cd:	0f 1f 00             	nopl   (%rax)
  4042d0:	83 e9 0c             	sub    $0xc,%ecx
  4042d3:	48 8d 50 0c          	lea    0xc(%rax),%rdx
  4042d7:	be 8f 5d 40 00       	mov    $0x405d8f,%esi
  4042dc:	31 c0                	xor    %eax,%eax
  4042de:	4c 89 ef             	mov    %r13,%rdi
  4042e1:	4c 8d 73 12          	lea    0x12(%rbx),%r14
  4042e5:	ff 15 85 35 20 00    	call   *0x203585(%rip)        # 607870 <stderr@GLIBC_2.2.5+0xa0>
  4042eb:	48 85 c0             	test   %rax,%rax
  4042ee:	75 a8                	jne    404298 <dlerror@plt+0x2958>
  4042f0:	4c 89 f6             	mov    %r14,%rsi
  4042f3:	bf 92 5d 40 00       	mov    $0x405d92,%edi
  4042f8:	31 c0                	xor    %eax,%eax
  4042fa:	e8 a1 df ff ff       	call   4022a0 <dlerror@plt+0x960>
  4042ff:	eb a8                	jmp    4042a9 <dlerror@plt+0x2969>
  404301:	0f 1f 80 00 00 00 00 	nopl   0x0(%rax)
  404308:	31 c0                	xor    %eax,%eax
  40430a:	5b                   	pop    %rbx
  40430b:	5d                   	pop    %rbp
  40430c:	41 5c                	pop    %r12
  40430e:	41 5d                	pop    %r13
  404310:	41 5e                	pop    %r14
  404312:	c3                   	ret    
  404313:	bf 08 60 40 00       	mov    $0x406008,%edi
  404318:	e8 83 df ff ff       	call   4022a0 <dlerror@plt+0x960>
  40431d:	b8 ff ff ff ff       	mov    $0xffffffff,%eax
  404322:	eb e6                	jmp    40430a <dlerror@plt+0x29ca>
  404324:	66 66 66 2e 0f 1f 84 	data16 data16 cs nopw 0x0(%rax,%rax,1)
  40432b:	00 00 00 00 00 
  404330:	55                   	push   %rbp
  404331:	53                   	push   %rbx
  404332:	48 83 c7 78          	add    $0x78,%rdi
  404336:	48 83 ec 08          	sub    $0x8,%rsp
  40433a:	8b 5e 04             	mov    0x4(%rsi),%ebx
  40433d:	0f cb                	bswap  %ebx
  40433f:	03 5f 90             	add    -0x70(%rdi),%ebx
  404342:	ff 15 b8 34 20 00    	call   *0x2034b8(%rip)        # 607800 <stderr@GLIBC_2.2.5+0x30>
  404348:	48 89 c5             	mov    %rax,%rbp
  40434b:	48 89 c6             	mov    %rax,%rsi
  40434e:	bf a3 5d 40 00       	mov    $0x405da3,%edi
  404353:	31 c0                	xor    %eax,%eax
  404355:	89 da                	mov    %ebx,%edx
  404357:	ff 15 ab 34 20 00    	call   *0x2034ab(%rip)        # 607808 <stderr@GLIBC_2.2.5+0x38>
  40435d:	48 89 ef             	mov    %rbp,%rdi
  404360:	48 89 c3             	mov    %rax,%rbx
  404363:	ff 15 a7 35 20 00    	call   *0x2035a7(%rip)        # 607910 <stderr@GLIBC_2.2.5+0x140>
  404369:	bf a9 5d 40 00       	mov    $0x405da9,%edi
  40436e:	ff 15 bc 34 20 00    	call   *0x2034bc(%rip)        # 607830 <stderr@GLIBC_2.2.5+0x60>
  404374:	48 85 c0             	test   %rax,%rax
  404377:	74 32                	je     4043ab <dlerror@plt+0x2a6b>
  404379:	48 89 de             	mov    %rbx,%rsi
  40437c:	48 89 c7             	mov    %rax,%rdi
  40437f:	ff 15 0b 35 20 00    	call   *0x20350b(%rip)        # 607890 <stderr@GLIBC_2.2.5+0xc0>
  404385:	89 c3                	mov    %eax,%ebx
  404387:	31 c0                	xor    %eax,%eax
  404389:	85 db                	test   %ebx,%ebx
  40438b:	75 0b                	jne    404398 <dlerror@plt+0x2a58>
  40438d:	48 83 c4 08          	add    $0x8,%rsp
  404391:	5b                   	pop    %rbx
  404392:	5d                   	pop    %rbp
  404393:	c3                   	ret    
  404394:	0f 1f 40 00          	nopl   0x0(%rax)
  404398:	bf ae 5d 40 00       	mov    $0x405dae,%edi
  40439d:	e8 fe de ff ff       	call   4022a0 <dlerror@plt+0x960>
  4043a2:	48 83 c4 08          	add    $0x8,%rsp
  4043a6:	89 d8                	mov    %ebx,%eax
  4043a8:	5b                   	pop    %rbx
  4043a9:	5d                   	pop    %rbp
  4043aa:	c3                   	ret    
  4043ab:	bf 30 60 40 00       	mov    $0x406030,%edi
  4043b0:	e8 eb de ff ff       	call   4022a0 <dlerror@plt+0x960>
  4043b5:	48 89 df             	mov    %rbx,%rdi
  4043b8:	ff 15 52 35 20 00    	call   *0x203552(%rip)        # 607910 <stderr@GLIBC_2.2.5+0x140>
  4043be:	b8 ff ff ff ff       	mov    $0xffffffff,%eax
  4043c3:	eb c8                	jmp    40438d <dlerror@plt+0x2a4d>
  4043c5:	66 66 2e 0f 1f 84 00 	data16 cs nopw 0x0(%rax,%rax,1)
  4043cc:	00 00 00 00 
  4043d0:	55                   	push   %rbp
  4043d1:	53                   	push   %rbx
  4043d2:	48 89 fd             	mov    %rdi,%rbp
  4043d5:	48 83 ec 08          	sub    $0x8,%rsp
  4043d9:	48 8b 5f 10          	mov    0x10(%rdi),%rbx
  4043dd:	48 3b 5f 18          	cmp    0x18(%rdi),%rbx
  4043e1:	72 19                	jb     4043fc <dlerror@plt+0x2abc>
  4043e3:	eb 2b                	jmp    404410 <dlerror@plt+0x2ad0>
  4043e5:	0f 1f 00             	nopl   (%rax)
  4043e8:	48 89 de             	mov    %rbx,%rsi
  4043eb:	48 89 ef             	mov    %rbp,%rdi
  4043ee:	e8 8d d7 ff ff       	call   401b80 <dlerror@plt+0x240>
  4043f3:	48 39 45 18          	cmp    %rax,0x18(%rbp)
  4043f7:	48 89 c3             	mov    %rax,%rbx
  4043fa:	76 14                	jbe    404410 <dlerror@plt+0x2ad0>
  4043fc:	80 7b 11 7a          	cmpb   $0x7a,0x11(%rbx)
  404400:	75 e6                	jne    4043e8 <dlerror@plt+0x2aa8>
  404402:	48 89 de             	mov    %rbx,%rsi
  404405:	48 89 ef             	mov    %rbp,%rdi
  404408:	e8 23 ff ff ff       	call   404330 <dlerror@plt+0x29f0>
  40440d:	eb d9                	jmp    4043e8 <dlerror@plt+0x2aa8>
  40440f:	90                   	nop
  404410:	48 83 c4 08          	add    $0x8,%rsp
  404414:	31 c0                	xor    %eax,%eax
  404416:	5b                   	pop    %rbx
  404417:	5d                   	pop    %rbp
  404418:	c3                   	ret    
  404419:	0f 1f 80 00 00 00 00 	nopl   0x0(%rax)
  404420:	83 bf 7c 40 00 00 01 	cmpl   $0x1,0x407c(%rdi)
  404427:	74 07                	je     404430 <dlerror@plt+0x2af0>
  404429:	f3 c3                	repz ret 
  40442b:	0f 1f 44 00 00       	nopl   0x0(%rax,%rax,1)
  404430:	48 83 ec 08          	sub    $0x8,%rsp
  404434:	bf 58 60 40 00       	mov    $0x406058,%edi
  404439:	ff 15 09 34 20 00    	call   *0x203409(%rip)        # 607848 <stderr@GLIBC_2.2.5+0x78>
  40443f:	bf f0 60 40 00       	mov    $0x4060f0,%edi
  404444:	ff 15 fe 33 20 00    	call   *0x2033fe(%rip)        # 607848 <stderr@GLIBC_2.2.5+0x78>
  40444a:	48 8b 05 b7 34 20 00 	mov    0x2034b7(%rip),%rax        # 607908 <stderr@GLIBC_2.2.5+0x138>
  404451:	48 83 c4 08          	add    $0x8,%rsp
  404455:	ff e0                	jmp    *%rax
  404457:	66 0f 1f 84 00 00 00 	nopw   0x0(%rax,%rax,1)
  40445e:	00 00 
  404460:	f3 c3                	repz ret 
  404462:	66 66 66 66 66 2e 0f 	data16 data16 data16 data16 cs nopw 0x0(%rax,%rax,1)
  404469:	1f 84 00 00 00 00 00 
  404470:	89 fe                	mov    %edi,%esi
  404472:	8b 3d d0 15 21 00    	mov    0x2115d0(%rip),%edi        # 615a48 <stderr@GLIBC_2.2.5+0xe278>
  404478:	e9 13 d3 ff ff       	jmp    401790 <kill@plt>
  40447d:	0f 1f 00             	nopl   (%rax)
  404480:	41 57                	push   %r15
  404482:	41 56                	push   %r14
  404484:	41 55                	push   %r13
  404486:	41 54                	push   %r12
  404488:	49 89 f5             	mov    %rsi,%r13
  40448b:	55                   	push   %rbp
  40448c:	53                   	push   %rbx
  40448d:	49 89 fc             	mov    %rdi,%r12
  404490:	48 89 d5             	mov    %rdx,%rbp
  404493:	48 83 ec 18          	sub    $0x18,%rsp
  404497:	48 85 ff             	test   %rdi,%rdi
  40449a:	0f 84 c0 00 00 00    	je     404560 <dlerror@plt+0x2c20>
  4044a0:	e8 9b d1 ff ff       	call   401640 <strlen@plt>
  4044a5:	4d 85 ed             	test   %r13,%r13
  4044a8:	49 89 c6             	mov    %rax,%r14
  4044ab:	48 8d 58 01          	lea    0x1(%rax),%rbx
  4044af:	0f 84 c3 00 00 00    	je     404578 <dlerror@plt+0x2c38>
  4044b5:	4c 89 ef             	mov    %r13,%rdi
  4044b8:	e8 83 d1 ff ff       	call   401640 <strlen@plt>
  4044bd:	48 85 ed             	test   %rbp,%rbp
  4044c0:	48 89 44 24 08       	mov    %rax,0x8(%rsp)
  4044c5:	0f 84 c5 00 00 00    	je     404590 <dlerror@plt+0x2c50>
  4044cb:	48 89 ef             	mov    %rbp,%rdi
  4044ce:	e8 6d d1 ff ff       	call   401640 <strlen@plt>
  4044d3:	49 89 c7             	mov    %rax,%r15
  4044d6:	48 8b 44 24 08       	mov    0x8(%rsp),%rax
  4044db:	48 8d 3c 18          	lea    (%rax,%rbx,1),%rdi
  4044df:	4c 01 ff             	add    %r15,%rdi
  4044e2:	e8 09 d3 ff ff       	call   4017f0 <malloc@plt>
  4044e7:	48 85 c0             	test   %rax,%rax
  4044ea:	48 89 c3             	mov    %rax,%rbx
  4044ed:	0f 84 ad 00 00 00    	je     4045a0 <dlerror@plt+0x2c60>
  4044f3:	4d 85 f6             	test   %r14,%r14
  4044f6:	c6 00 00             	movb   $0x0,(%rax)
  4044f9:	75 1d                	jne    404518 <dlerror@plt+0x2bd8>
  4044fb:	4d 85 ff             	test   %r15,%r15
  4044fe:	48 89 d8             	mov    %rbx,%rax
  404501:	75 3b                	jne    40453e <dlerror@plt+0x2bfe>
  404503:	48 83 c4 18          	add    $0x18,%rsp
  404507:	5b                   	pop    %rbx
  404508:	5d                   	pop    %rbp
  404509:	41 5c                	pop    %r12
  40450b:	41 5d                	pop    %r13
  40450d:	41 5e                	pop    %r14
  40450f:	41 5f                	pop    %r15
  404511:	c3                   	ret    
  404512:	66 0f 1f 44 00 00    	nopw   0x0(%rax,%rax,1)
  404518:	48 89 c7             	mov    %rax,%rdi
  40451b:	4c 89 e6             	mov    %r12,%rsi
  40451e:	e8 fd d0 ff ff       	call   401620 <stpcpy@plt>
  404523:	48 83 7c 24 08 00    	cmpq   $0x0,0x8(%rsp)
  404529:	48 89 c7             	mov    %rax,%rdi
  40452c:	74 cd                	je     4044fb <dlerror@plt+0x2bbb>
  40452e:	4d 85 ff             	test   %r15,%r15
  404531:	48 89 d8             	mov    %rbx,%rax
  404534:	74 cd                	je     404503 <dlerror@plt+0x2bc3>
  404536:	4c 89 ee             	mov    %r13,%rsi
  404539:	e8 42 d0 ff ff       	call   401580 <strcpy@plt>
  40453e:	48 89 ee             	mov    %rbp,%rsi
  404541:	48 89 df             	mov    %rbx,%rdi
  404544:	e8 a7 d3 ff ff       	call   4018f0 <strcat@plt>
  404549:	48 83 c4 18          	add    $0x18,%rsp
  40454d:	48 89 d8             	mov    %rbx,%rax
  404550:	5b                   	pop    %rbx
  404551:	5d                   	pop    %rbp
  404552:	41 5c                	pop    %r12
  404554:	41 5d                	pop    %r13
  404556:	41 5e                	pop    %r14
  404558:	41 5f                	pop    %r15
  40455a:	c3                   	ret    
  40455b:	0f 1f 44 00 00       	nopl   0x0(%rax,%rax,1)
  404560:	45 31 f6             	xor    %r14d,%r14d
  404563:	4d 85 ed             	test   %r13,%r13
  404566:	bb 01 00 00 00       	mov    $0x1,%ebx
  40456b:	0f 85 44 ff ff ff    	jne    4044b5 <dlerror@plt+0x2b75>
  404571:	0f 1f 80 00 00 00 00 	nopl   0x0(%rax)
  404578:	48 85 ed             	test   %rbp,%rbp
  40457b:	48 c7 44 24 08 00 00 	movq   $0x0,0x8(%rsp)
  404582:	00 00 
  404584:	0f 85 41 ff ff ff    	jne    4044cb <dlerror@plt+0x2b8b>
  40458a:	66 0f 1f 44 00 00    	nopw   0x0(%rax,%rax,1)
  404590:	45 31 ff             	xor    %r15d,%r15d
  404593:	e9 3e ff ff ff       	jmp    4044d6 <dlerror@plt+0x2b96>
  404598:	0f 1f 84 00 00 00 00 	nopl   0x0(%rax,%rax,1)
  40459f:	00 
  4045a0:	31 c0                	xor    %eax,%eax
  4045a2:	e9 5c ff ff ff       	jmp    404503 <dlerror@plt+0x2bc3>
  4045a7:	66 0f 1f 84 00 00 00 	nopw   0x0(%rax,%rax,1)
  4045ae:	00 00 
  4045b0:	48 83 ec 08          	sub    $0x8,%rsp
  4045b4:	e8 47 cf ff ff       	call   401500 <getenv@plt>
  4045b9:	48 85 c0             	test   %rax,%rax
  4045bc:	74 12                	je     4045d0 <dlerror@plt+0x2c90>
  4045be:	80 38 00             	cmpb   $0x0,(%rax)
  4045c1:	74 0d                	je     4045d0 <dlerror@plt+0x2c90>
  4045c3:	48 89 c7             	mov    %rax,%rdi
  4045c6:	48 83 c4 08          	add    $0x8,%rsp
  4045ca:	e9 f1 d0 ff ff       	jmp    4016c0 <__strdup@plt>
  4045cf:	90                   	nop
  4045d0:	31 c0                	xor    %eax,%eax
  4045d2:	48 83 c4 08          	add    $0x8,%rsp
  4045d6:	c3                   	ret    
  4045d7:	66 0f 1f 84 00 00 00 	nopw   0x0(%rax,%rax,1)
  4045de:	00 00 
  4045e0:	55                   	push   %rbp
  4045e1:	53                   	push   %rbx
  4045e2:	48 89 fd             	mov    %rdi,%rbp
  4045e5:	bf 81 61 40 00       	mov    $0x406181,%edi
  4045ea:	48 83 ec 08          	sub    $0x8,%rsp
  4045ee:	e8 bd ff ff ff       	call   4045b0 <dlerror@plt+0x2c70>
  4045f3:	48 85 c0             	test   %rax,%rax
  4045f6:	48 89 c3             	mov    %rax,%rbx
  4045f9:	74 12                	je     40460d <dlerror@plt+0x2ccd>
  4045fb:	ba 01 00 00 00       	mov    $0x1,%edx
  404600:	48 89 c6             	mov    %rax,%rsi
  404603:	bf 91 61 40 00       	mov    $0x406191,%edi
  404608:	e8 d3 cf ff ff       	call   4015e0 <setenv@plt>
  40460d:	48 89 da             	mov    %rbx,%rdx
  404610:	48 89 ef             	mov    %rbp,%rdi
  404613:	be c3 52 40 00       	mov    $0x4052c3,%esi
  404618:	e8 63 fe ff ff       	call   404480 <dlerror@plt+0x2b40>
  40461d:	ba 01 00 00 00       	mov    $0x1,%edx
  404622:	48 89 c3             	mov    %rax,%rbx
  404625:	48 89 c6             	mov    %rax,%rsi
  404628:	bf 81 61 40 00       	mov    $0x406181,%edi
  40462d:	e8 ae cf ff ff       	call   4015e0 <setenv@plt>
  404632:	48 89 df             	mov    %rbx,%rdi
  404635:	89 c5                	mov    %eax,%ebp
  404637:	e8 f4 ce ff ff       	call   401530 <free@plt>
  40463c:	48 83 c4 08          	add    $0x8,%rsp
  404640:	89 e8                	mov    %ebp,%eax
  404642:	5b                   	pop    %rbx
  404643:	5d                   	pop    %rbp
  404644:	c3                   	ret    
  404645:	66 66 2e 0f 1f 84 00 	data16 cs nopw 0x0(%rax,%rax,1)
  40464c:	00 00 00 00 
  404650:	ba 01 00 00 00       	mov    $0x1,%edx
  404655:	e9 86 cf ff ff       	jmp    4015e0 <setenv@plt>
  40465a:	66 0f 1f 44 00 00    	nopw   0x0(%rax,%rax,1)
  404660:	e9 6b d2 ff ff       	jmp    4018d0 <unsetenv@plt>
  404665:	66 66 2e 0f 1f 84 00 	data16 cs nopw 0x0(%rax,%rax,1)
  40466c:	00 00 00 00 
  404670:	53                   	push   %rbx
  404671:	48 89 fb             	mov    %rdi,%rbx
  404674:	e8 c7 cf ff ff       	call   401640 <strlen@plt>
  404679:	80 7c 03 ff 2f       	cmpb   $0x2f,-0x1(%rbx,%rax,1)
  40467e:	74 11                	je     404691 <dlerror@plt+0x2d51>
  404680:	b9 2f 00 00 00       	mov    $0x2f,%ecx
  404685:	48 89 df             	mov    %rbx,%rdi
  404688:	66 89 0c 03          	mov    %cx,(%rbx,%rax,1)
  40468c:	e8 af cf ff ff       	call   401640 <strlen@plt>
  404691:	48 01 d8             	add    %rbx,%rax
  404694:	48 ba 5f 4d 45 49 58 	movabs $0x5858585849454d5f,%rdx
  40469b:	58 58 58 
  40469e:	48 89 df             	mov    %rbx,%rdi
  4046a1:	48 89 10             	mov    %rdx,(%rax)
  4046a4:	ba 58 58 00 00       	mov    $0x5858,%edx
  4046a9:	c6 40 0a 00          	movb   $0x0,0xa(%rax)
  4046ad:	66 89 50 08          	mov    %dx,0x8(%rax)
  4046b1:	e8 9a d1 ff ff       	call   401850 <mkdtemp@plt>
  4046b6:	48 85 c0             	test   %rax,%rax
  4046b9:	0f 95 c0             	setne  %al
  4046bc:	0f b6 c0             	movzbl %al,%eax
  4046bf:	5b                   	pop    %rbx
  4046c0:	c3                   	ret    
  4046c1:	66 66 66 66 66 66 2e 	data16 data16 data16 data16 data16 cs nopw 0x0(%rax,%rax,1)
  4046c8:	0f 1f 84 00 00 00 00 
  4046cf:	00 
  4046d0:	31 c0                	xor    %eax,%eax
  4046d2:	83 bf 78 40 00 00 01 	cmpl   $0x1,0x4078(%rdi)
  4046d9:	74 53                	je     40472e <dlerror@plt+0x2dee>
  4046db:	41 54                	push   %r12
  4046dd:	55                   	push   %rbp
  4046de:	be ad 61 40 00       	mov    $0x4061ad,%esi
  4046e3:	53                   	push   %rbx
  4046e4:	49 89 fc             	mov    %rdi,%r12
  4046e7:	49 8d 9c 24 78 20 00 	lea    0x2078(%r12),%rbx
  4046ee:	00 
  4046ef:	e8 3c da ff ff       	call   402130 <dlerror@plt+0x7f0>
  4046f4:	48 85 c0             	test   %rax,%rax
  4046f7:	74 37                	je     404730 <dlerror@plt+0x2df0>
  4046f9:	ba 00 10 00 00       	mov    $0x1000,%edx
  4046fe:	48 89 c6             	mov    %rax,%rsi
  404701:	48 89 df             	mov    %rbx,%rdi
  404704:	e8 37 d1 ff ff       	call   401840 <__strcpy_chk@plt>
  404709:	48 89 df             	mov    %rbx,%rdi
  40470c:	e8 5f ff ff ff       	call   404670 <dlerror@plt+0x2d30>
  404711:	85 c0                	test   %eax,%eax
  404713:	0f 85 97 00 00 00    	jne    4047b0 <dlerror@plt+0x2e70>
  404719:	31 c0                	xor    %eax,%eax
  40471b:	bf 10 62 40 00       	mov    $0x406210,%edi
  404720:	e8 7b db ff ff       	call   4022a0 <dlerror@plt+0x960>
  404725:	b8 ff ff ff ff       	mov    $0xffffffff,%eax
  40472a:	5b                   	pop    %rbx
  40472b:	5d                   	pop    %rbp
  40472c:	41 5c                	pop    %r12
  40472e:	f3 c3                	repz ret 
  404730:	bd a0 62 40 00       	mov    $0x4062a0,%ebp
  404735:	bf a6 61 40 00       	mov    $0x4061a6,%edi
  40473a:	66 0f 1f 44 00 00    	nopw   0x0(%rax,%rax,1)
  404740:	e8 6b fe ff ff       	call   4045b0 <dlerror@plt+0x2c70>
  404745:	48 85 c0             	test   %rax,%rax
  404748:	74 1c                	je     404766 <dlerror@plt+0x2e26>
  40474a:	ba 00 10 00 00       	mov    $0x1000,%edx
  40474f:	48 89 c6             	mov    %rax,%rsi
  404752:	48 89 df             	mov    %rbx,%rdi
  404755:	e8 e6 d0 ff ff       	call   401840 <__strcpy_chk@plt>
  40475a:	48 89 df             	mov    %rbx,%rdi
  40475d:	e8 0e ff ff ff       	call   404670 <dlerror@plt+0x2d30>
  404762:	85 c0                	test   %eax,%eax
  404764:	75 4a                	jne    4047b0 <dlerror@plt+0x2e70>
  404766:	48 83 c5 08          	add    $0x8,%rbp
  40476a:	48 8b 7d 00          	mov    0x0(%rbp),%rdi
  40476e:	48 85 ff             	test   %rdi,%rdi
  404771:	75 cd                	jne    404740 <dlerror@plt+0x2e00>
  404773:	bd 80 62 40 00       	mov    $0x406280,%ebp
  404778:	be f4 61 40 00       	mov    $0x4061f4,%esi
  40477d:	eb 0e                	jmp    40478d <dlerror@plt+0x2e4d>
  40477f:	90                   	nop
  404780:	48 83 c5 08          	add    $0x8,%rbp
  404784:	48 8b 75 00          	mov    0x0(%rbp),%rsi
  404788:	48 85 f6             	test   %rsi,%rsi
  40478b:	74 8c                	je     404719 <dlerror@plt+0x2dd9>
  40478d:	ba 00 10 00 00       	mov    $0x1000,%edx
  404792:	48 89 df             	mov    %rbx,%rdi
  404795:	e8 a6 d0 ff ff       	call   401840 <__strcpy_chk@plt>
  40479a:	48 89 df             	mov    %rbx,%rdi
  40479d:	e8 ce fe ff ff       	call   404670 <dlerror@plt+0x2d30>
  4047a2:	85 c0                	test   %eax,%eax
  4047a4:	74 da                	je     404780 <dlerror@plt+0x2e40>
  4047a6:	66 2e 0f 1f 84 00 00 	cs nopw 0x0(%rax,%rax,1)
  4047ad:	00 00 00 
  4047b0:	41 c7 84 24 78 40 00 	movl   $0x1,0x4078(%r12)
  4047b7:	00 01 00 00 00 
  4047bc:	31 c0                	xor    %eax,%eax
  4047be:	e9 67 ff ff ff       	jmp    40472a <dlerror@plt+0x2dea>
  4047c3:	66 66 66 66 2e 0f 1f 	data16 data16 data16 cs nopw 0x0(%rax,%rax,1)
  4047ca:	84 00 00 00 00 00 
  4047d0:	41 55                	push   %r13
  4047d2:	41 54                	push   %r12
  4047d4:	ba 00 10 00 00       	mov    $0x1000,%edx
  4047d9:	55                   	push   %rbp
  4047da:	53                   	push   %rbx
  4047db:	48 89 fe             	mov    %rdi,%rsi
  4047de:	49 89 fd             	mov    %rdi,%r13
  4047e1:	48 81 ec a8 10 00 00 	sub    $0x10a8,%rsp
  4047e8:	48 8d ac 24 90 00 00 	lea    0x90(%rsp),%rbp
  4047ef:	00 
  4047f0:	48 89 ef             	mov    %rbp,%rdi
  4047f3:	e8 68 cd ff ff       	call   401560 <strncpy@plt>
  4047f8:	48 89 ea             	mov    %rbp,%rdx
  4047fb:	8b 0a                	mov    (%rdx),%ecx
  4047fd:	48 83 c2 04          	add    $0x4,%rdx
  404801:	8d 81 ff fe fe fe    	lea    -0x1010101(%rcx),%eax
  404807:	f7 d1                	not    %ecx
  404809:	21 c8                	and    %ecx,%eax
  40480b:	25 80 80 80 80       	and    $0x80808080,%eax
  404810:	74 e9                	je     4047fb <dlerror@plt+0x2ebb>
  404812:	89 c1                	mov    %eax,%ecx
  404814:	c1 e9 10             	shr    $0x10,%ecx
  404817:	a9 80 80 00 00       	test   $0x8080,%eax
  40481c:	0f 44 c1             	cmove  %ecx,%eax
  40481f:	48 8d 4a 02          	lea    0x2(%rdx),%rcx
  404823:	48 0f 44 d1          	cmove  %rcx,%rdx
  404827:	00 c0                	add    %al,%al
  404829:	48 83 da 03          	sbb    $0x3,%rdx
  40482d:	48 29 ea             	sub    %rbp,%rdx
  404830:	8d 42 ff             	lea    -0x1(%rdx),%eax
  404833:	41 89 d4             	mov    %edx,%r12d
  404836:	48 98                	cltq   
  404838:	80 bc 04 90 00 00 00 	cmpb   $0x2f,0x90(%rsp,%rax,1)
  40483f:	2f 
  404840:	74 0e                	je     404850 <dlerror@plt+0x2f10>
  404842:	b8 2f 00 00 00       	mov    $0x2f,%eax
  404847:	44 8d 62 01          	lea    0x1(%rdx),%r12d
  40484b:	66 89 44 15 00       	mov    %ax,0x0(%rbp,%rdx,1)
  404850:	4c 89 ef             	mov    %r13,%rdi
  404853:	4d 63 e4             	movslq %r12d,%r12
  404856:	e8 b5 cd ff ff       	call   401610 <opendir@plt>
  40485b:	48 89 c7             	mov    %rax,%rdi
  40485e:	48 89 c3             	mov    %rax,%rbx
  404861:	e8 6a cf ff ff       	call   4017d0 <readdir@plt>
  404866:	48 85 c0             	test   %rax,%rax
  404869:	48 89 c2             	mov    %rax,%rdx
  40486c:	75 62                	jne    4048d0 <dlerror@plt+0x2f90>
  40486e:	e9 8d 00 00 00       	jmp    404900 <dlerror@plt+0x2fc0>
  404873:	0f 1f 44 00 00       	nopl   0x0(%rax,%rax,1)
  404878:	48 8d 72 13          	lea    0x13(%rdx),%rsi
  40487c:	48 89 ef             	mov    %rbp,%rdi
  40487f:	ba 01 10 00 00       	mov    $0x1001,%edx
  404884:	42 c6 84 24 90 00 00 	movb   $0x0,0x90(%rsp,%r12,1)
  40488b:	00 00 
  40488d:	e8 5e cc ff ff       	call   4014f0 <__strcat_chk@plt>
  404892:	48 89 e2             	mov    %rsp,%rdx
  404895:	48 89 ee             	mov    %rbp,%rsi
  404898:	bf 01 00 00 00       	mov    $0x1,%edi
  40489d:	e8 1e cf ff ff       	call   4017c0 <__xstat@plt>
  4048a2:	85 c0                	test   %eax,%eax
  4048a4:	75 1a                	jne    4048c0 <dlerror@plt+0x2f80>
  4048a6:	8b 44 24 18          	mov    0x18(%rsp),%eax
  4048aa:	48 89 ef             	mov    %rbp,%rdi
  4048ad:	25 00 f0 00 00       	and    $0xf000,%eax
  4048b2:	3d 00 40 00 00       	cmp    $0x4000,%eax
  4048b7:	74 67                	je     404920 <dlerror@plt+0x2fe0>
  4048b9:	e8 92 cc ff ff       	call   401550 <unlink@plt>
  4048be:	66 90                	xchg   %ax,%ax
  4048c0:	48 89 df             	mov    %rbx,%rdi
  4048c3:	e8 08 cf ff ff       	call   4017d0 <readdir@plt>
  4048c8:	48 85 c0             	test   %rax,%rax
  4048cb:	48 89 c2             	mov    %rax,%rdx
  4048ce:	74 30                	je     404900 <dlerror@plt+0x2fc0>
  4048d0:	80 7a 13 2e          	cmpb   $0x2e,0x13(%rdx)
  4048d4:	75 a2                	jne    404878 <dlerror@plt+0x2f38>
  4048d6:	0f b6 42 14          	movzbl 0x14(%rdx),%eax
  4048da:	84 c0                	test   %al,%al
  4048dc:	74 e2                	je     4048c0 <dlerror@plt+0x2f80>
  4048de:	3c 2e                	cmp    $0x2e,%al
  4048e0:	75 96                	jne    404878 <dlerror@plt+0x2f38>
  4048e2:	80 7a 15 00          	cmpb   $0x0,0x15(%rdx)
  4048e6:	75 90                	jne    404878 <dlerror@plt+0x2f38>
  4048e8:	48 89 df             	mov    %rbx,%rdi
  4048eb:	e8 e0 ce ff ff       	call   4017d0 <readdir@plt>
  4048f0:	48 85 c0             	test   %rax,%rax
  4048f3:	48 89 c2             	mov    %rax,%rdx
  4048f6:	75 d8                	jne    4048d0 <dlerror@plt+0x2f90>
  4048f8:	0f 1f 84 00 00 00 00 	nopl   0x0(%rax,%rax,1)
  4048ff:	00 
  404900:	48 89 df             	mov    %rbx,%rdi
  404903:	e8 a8 cd ff ff       	call   4016b0 <closedir@plt>
  404908:	4c 89 ef             	mov    %r13,%rdi
  40490b:	e8 20 cd ff ff       	call   401630 <rmdir@plt>
  404910:	48 81 c4 a8 10 00 00 	add    $0x10a8,%rsp
  404917:	5b                   	pop    %rbx
  404918:	5d                   	pop    %rbp
  404919:	41 5c                	pop    %r12
  40491b:	41 5d                	pop    %r13
  40491d:	c3                   	ret    
  40491e:	66 90                	xchg   %ax,%ax
  404920:	e8 ab fe ff ff       	call   4047d0 <dlerror@plt+0x2e90>
  404925:	eb 99                	jmp    4048c0 <dlerror@plt+0x2f80>
  404927:	66 0f 1f 84 00 00 00 	nopw   0x0(%rax,%rax,1)
  40492e:	00 00 
  404930:	80 bf 78 20 00 00 00 	cmpb   $0x0,0x2078(%rdi)
  404937:	75 07                	jne    404940 <dlerror@plt+0x3000>
  404939:	f3 c3                	repz ret 
  40493b:	0f 1f 44 00 00       	nopl   0x0(%rax,%rax,1)
  404940:	48 81 c7 78 20 00 00 	add    $0x2078,%rdi
  404947:	e9 84 fe ff ff       	jmp    4047d0 <dlerror@plt+0x2e90>
  40494c:	0f 1f 40 00          	nopl   0x0(%rax)
  404950:	41 54                	push   %r12
  404952:	55                   	push   %rbp
  404953:	48 89 f9             	mov    %rdi,%rcx
  404956:	53                   	push   %rbx
  404957:	31 c0                	xor    %eax,%eax
  404959:	48 89 f3             	mov    %rsi,%rbx
  40495c:	ba a0 5d 40 00       	mov    $0x405da0,%edx
  404961:	be 00 10 00 00       	mov    $0x1000,%esi
  404966:	48 81 ec 90 20 00 00 	sub    $0x2090,%rsp
  40496d:	48 8d ac 24 90 00 00 	lea    0x90(%rsp),%rbp
  404974:	00 
  404975:	48 89 ef             	mov    %rbp,%rdi
  404978:	e8 f3 cc ff ff       	call   401670 <snprintf@plt>
  40497d:	3d ff 0f 00 00       	cmp    $0xfff,%eax
  404982:	0f 8f 28 01 00 00    	jg     404ab0 <dlerror@plt+0x3170>
  404988:	48 8d bc 24 90 10 00 	lea    0x1090(%rsp),%rdi
  40498f:	00 
  404990:	31 c0                	xor    %eax,%eax
  404992:	48 89 d9             	mov    %rbx,%rcx
  404995:	ba a0 5d 40 00       	mov    $0x405da0,%edx
  40499a:	be 00 10 00 00       	mov    $0x1000,%esi
  40499f:	e8 cc cc ff ff       	call   401670 <snprintf@plt>
  4049a4:	3d ff 0f 00 00       	cmp    $0xfff,%eax
  4049a9:	0f 8f 01 01 00 00    	jg     404ab0 <dlerror@plt+0x3170>
  4049af:	48 89 eb             	mov    %rbp,%rbx
  4049b2:	8b 13                	mov    (%rbx),%edx
  4049b4:	48 83 c3 04          	add    $0x4,%rbx
  4049b8:	8d 82 ff fe fe fe    	lea    -0x1010101(%rdx),%eax
  4049be:	f7 d2                	not    %edx
  4049c0:	21 d0                	and    %edx,%eax
  4049c2:	25 80 80 80 80       	and    $0x80808080,%eax
  4049c7:	74 e9                	je     4049b2 <dlerror@plt+0x3072>
  4049c9:	89 c2                	mov    %eax,%edx
  4049cb:	48 8d bc 24 90 10 00 	lea    0x1090(%rsp),%rdi
  4049d2:	00 
  4049d3:	be 31 51 40 00       	mov    $0x405131,%esi
  4049d8:	c1 ea 10             	shr    $0x10,%edx
  4049db:	a9 80 80 00 00       	test   $0x8080,%eax
  4049e0:	0f 44 c2             	cmove  %edx,%eax
  4049e3:	48 8d 53 02          	lea    0x2(%rbx),%rdx
  4049e7:	48 0f 44 da          	cmove  %rdx,%rbx
  4049eb:	00 c0                	add    %al,%al
  4049ed:	48 83 db 03          	sbb    $0x3,%rbx
  4049f1:	48 29 eb             	sub    %rbp,%rbx
  4049f4:	e8 c7 ce ff ff       	call   4018c0 <strtok@plt>
  4049f9:	48 85 c0             	test   %rax,%rax
  4049fc:	49 89 c4             	mov    %rax,%r12
  4049ff:	0f 84 bb 00 00 00    	je     404ac0 <dlerror@plt+0x3180>
  404a05:	0f 1f 00             	nopl   (%rax)
  404a08:	4c 89 e7             	mov    %r12,%rdi
  404a0b:	e8 30 cc ff ff       	call   401640 <strlen@plt>
  404a10:	48 8d 5c 03 01       	lea    0x1(%rbx,%rax,1),%rbx
  404a15:	48 81 fb fe 0f 00 00 	cmp    $0xffe,%rbx
  404a1c:	0f 87 8e 00 00 00    	ja     404ab0 <dlerror@plt+0x3170>
  404a22:	48 89 e9             	mov    %rbp,%rcx
  404a25:	8b 01                	mov    (%rcx),%eax
  404a27:	48 83 c1 04          	add    $0x4,%rcx
  404a2b:	8d 90 ff fe fe fe    	lea    -0x1010101(%rax),%edx
  404a31:	f7 d0                	not    %eax
  404a33:	21 c2                	and    %eax,%edx
  404a35:	81 e2 80 80 80 80    	and    $0x80808080,%edx
  404a3b:	74 e8                	je     404a25 <dlerror@plt+0x30e5>
  404a3d:	89 d0                	mov    %edx,%eax
  404a3f:	4c 89 e6             	mov    %r12,%rsi
  404a42:	c1 e8 10             	shr    $0x10,%eax
  404a45:	f7 c2 80 80 00 00    	test   $0x8080,%edx
  404a4b:	0f 44 d0             	cmove  %eax,%edx
  404a4e:	48 8d 41 02          	lea    0x2(%rcx),%rax
  404a52:	48 0f 44 c8          	cmove  %rax,%rcx
  404a56:	00 d2                	add    %dl,%dl
  404a58:	b8 2f 00 00 00       	mov    $0x2f,%eax
  404a5d:	48 83 d9 03          	sbb    $0x3,%rcx
  404a61:	ba 00 10 00 00       	mov    $0x1000,%edx
  404a66:	48 8d 79 01          	lea    0x1(%rcx),%rdi
  404a6a:	66 89 01             	mov    %ax,(%rcx)
  404a6d:	e8 ce cd ff ff       	call   401840 <__strcpy_chk@plt>
  404a72:	31 ff                	xor    %edi,%edi
  404a74:	be 31 51 40 00       	mov    $0x405131,%esi
  404a79:	e8 42 ce ff ff       	call   4018c0 <strtok@plt>
  404a7e:	48 85 c0             	test   %rax,%rax
  404a81:	49 89 c4             	mov    %rax,%r12
  404a84:	74 3a                	je     404ac0 <dlerror@plt+0x3180>
  404a86:	48 89 e2             	mov    %rsp,%rdx
  404a89:	48 89 ee             	mov    %rbp,%rsi
  404a8c:	bf 01 00 00 00       	mov    $0x1,%edi
  404a91:	e8 2a cd ff ff       	call   4017c0 <__xstat@plt>
  404a96:	85 c0                	test   %eax,%eax
  404a98:	0f 89 6a ff ff ff    	jns    404a08 <dlerror@plt+0x30c8>
  404a9e:	be c0 01 00 00       	mov    $0x1c0,%esi
  404aa3:	48 89 ef             	mov    %rbp,%rdi
  404aa6:	e8 f5 ca ff ff       	call   4015a0 <mkdir@plt>
  404aab:	e9 58 ff ff ff       	jmp    404a08 <dlerror@plt+0x30c8>
  404ab0:	48 81 c4 90 20 00 00 	add    $0x2090,%rsp
  404ab7:	31 c0                	xor    %eax,%eax
  404ab9:	5b                   	pop    %rbx
  404aba:	5d                   	pop    %rbp
  404abb:	41 5c                	pop    %r12
  404abd:	c3                   	ret    
  404abe:	66 90                	xchg   %ax,%ax
  404ac0:	48 89 e2             	mov    %rsp,%rdx
  404ac3:	48 89 ee             	mov    %rbp,%rsi
  404ac6:	bf 01 00 00 00       	mov    $0x1,%edi
  404acb:	e8 f0 cc ff ff       	call   4017c0 <__xstat@plt>
  404ad0:	85 c0                	test   %eax,%eax
  404ad2:	74 19                	je     404aed <dlerror@plt+0x31ad>
  404ad4:	be c0 61 40 00       	mov    $0x4061c0,%esi
  404ad9:	48 89 ef             	mov    %rbp,%rdi
  404adc:	e8 bf cd ff ff       	call   4018a0 <fopen@plt>
  404ae1:	48 81 c4 90 20 00 00 	add    $0x2090,%rsp
  404ae8:	5b                   	pop    %rbx
  404ae9:	5d                   	pop    %rbp
  404aea:	41 5c                	pop    %r12
  404aec:	c3                   	ret    
  404aed:	48 89 ee             	mov    %rbp,%rsi
  404af0:	bf 48 62 40 00       	mov    $0x406248,%edi
  404af5:	e8 a6 d7 ff ff       	call   4022a0 <dlerror@plt+0x960>
  404afa:	be c0 61 40 00       	mov    $0x4061c0,%esi
  404aff:	48 89 ef             	mov    %rbp,%rdi
  404b02:	e8 99 cd ff ff       	call   4018a0 <fopen@plt>
  404b07:	eb d8                	jmp    404ae1 <dlerror@plt+0x31a1>
  404b09:	0f 1f 80 00 00 00 00 	nopl   0x0(%rax)
  404b10:	41 54                	push   %r12
  404b12:	55                   	push   %rbp
  404b13:	49 89 d4             	mov    %rdx,%r12
  404b16:	53                   	push   %rbx
  404b17:	48 89 f5             	mov    %rsi,%rbp
  404b1a:	be 4d 4f 40 00       	mov    $0x404f4d,%esi
  404b1f:	48 81 ec 00 10 00 00 	sub    $0x1000,%rsp
  404b26:	e8 75 cd ff ff       	call   4018a0 <fopen@plt>
  404b2b:	48 89 ef             	mov    %rbp,%rdi
  404b2e:	4c 89 e6             	mov    %r12,%rsi
  404b31:	48 89 c3             	mov    %rax,%rbx
  404b34:	e8 17 fe ff ff       	call   404950 <dlerror@plt+0x3010>
  404b39:	48 85 c0             	test   %rax,%rax
  404b3c:	48 89 c5             	mov    %rax,%rbp
  404b3f:	0f 84 93 00 00 00    	je     404bd8 <dlerror@plt+0x3298>
  404b45:	48 85 db             	test   %rbx,%rbx
  404b48:	0f 84 8a 00 00 00    	je     404bd8 <dlerror@plt+0x3298>
  404b4e:	66 90                	xchg   %ax,%ax
  404b50:	48 89 df             	mov    %rbx,%rdi
  404b53:	e8 e8 cb ff ff       	call   401740 <feof@plt>
  404b58:	85 c0                	test   %eax,%eax
  404b5a:	0f 85 a8 00 00 00    	jne    404c08 <dlerror@plt+0x32c8>
  404b60:	48 89 d9             	mov    %rbx,%rcx
  404b63:	ba 00 10 00 00       	mov    $0x1000,%edx
  404b68:	be 01 00 00 00       	mov    $0x1,%esi
  404b6d:	48 89 e7             	mov    %rsp,%rdi
  404b70:	e8 4b ca ff ff       	call   4015c0 <fread@plt>
  404b75:	48 85 c0             	test   %rax,%rax
  404b78:	75 26                	jne    404ba0 <dlerror@plt+0x3260>
  404b7a:	48 89 df             	mov    %rbx,%rdi
  404b7d:	e8 2e ca ff ff       	call   4015b0 <ferror@plt>
  404b82:	85 c0                	test   %eax,%eax
  404b84:	74 ca                	je     404b50 <dlerror@plt+0x3210>
  404b86:	48 89 df             	mov    %rbx,%rdi
  404b89:	41 bc ff ff ff ff    	mov    $0xffffffff,%r12d
  404b8f:	e8 cc cb ff ff       	call   401760 <clearerr@plt>
  404b94:	eb 75                	jmp    404c0b <dlerror@plt+0x32cb>
  404b96:	66 2e 0f 1f 84 00 00 	cs nopw 0x0(%rax,%rax,1)
  404b9d:	00 00 00 
  404ba0:	48 89 e9             	mov    %rbp,%rcx
  404ba3:	48 89 c2             	mov    %rax,%rdx
  404ba6:	be 01 00 00 00       	mov    $0x1,%esi
  404bab:	48 89 e7             	mov    %rsp,%rdi
  404bae:	e8 4d cd ff ff       	call   401900 <fwrite@plt>
  404bb3:	48 85 c0             	test   %rax,%rax
  404bb6:	74 0c                	je     404bc4 <dlerror@plt+0x3284>
  404bb8:	48 89 ef             	mov    %rbp,%rdi
  404bbb:	e8 f0 c9 ff ff       	call   4015b0 <ferror@plt>
  404bc0:	85 c0                	test   %eax,%eax
  404bc2:	74 8c                	je     404b50 <dlerror@plt+0x3210>
  404bc4:	48 89 ef             	mov    %rbp,%rdi
  404bc7:	41 bc ff ff ff ff    	mov    $0xffffffff,%r12d
  404bcd:	e8 8e cb ff ff       	call   401760 <clearerr@plt>
  404bd2:	eb 37                	jmp    404c0b <dlerror@plt+0x32cb>
  404bd4:	0f 1f 40 00          	nopl   0x0(%rax)
  404bd8:	48 85 db             	test   %rbx,%rbx
  404bdb:	74 08                	je     404be5 <dlerror@plt+0x32a5>
  404bdd:	48 89 df             	mov    %rbx,%rdi
  404be0:	e8 1b ca ff ff       	call   401600 <fclose@plt>
  404be5:	48 85 ed             	test   %rbp,%rbp
  404be8:	bb ff ff ff ff       	mov    $0xffffffff,%ebx
  404bed:	74 08                	je     404bf7 <dlerror@plt+0x32b7>
  404bef:	48 89 ef             	mov    %rbp,%rdi
  404bf2:	e8 09 ca ff ff       	call   401600 <fclose@plt>
  404bf7:	48 81 c4 00 10 00 00 	add    $0x1000,%rsp
  404bfe:	89 d8                	mov    %ebx,%eax
  404c00:	5b                   	pop    %rbx
  404c01:	5d                   	pop    %rbp
  404c02:	41 5c                	pop    %r12
  404c04:	c3                   	ret    
  404c05:	0f 1f 00             	nopl   (%rax)
  404c08:	45 31 e4             	xor    %r12d,%r12d
  404c0b:	48 89 ef             	mov    %rbp,%rdi
  404c0e:	e8 9d cb ff ff       	call   4017b0 <fileno@plt>
  404c13:	be c0 01 00 00       	mov    $0x1c0,%esi
  404c18:	89 c7                	mov    %eax,%edi
  404c1a:	e8 51 cc ff ff       	call   401870 <fchmod@plt>
  404c1f:	48 89 df             	mov    %rbx,%rdi
  404c22:	44 89 e3             	mov    %r12d,%ebx
  404c25:	e8 d6 c9 ff ff       	call   401600 <fclose@plt>
  404c2a:	48 89 ef             	mov    %rbp,%rdi
  404c2d:	e8 ce c9 ff ff       	call   401600 <fclose@plt>
  404c32:	48 81 c4 00 10 00 00 	add    $0x1000,%rsp
  404c39:	89 d8                	mov    %ebx,%eax
  404c3b:	5b                   	pop    %rbx
  404c3c:	5d                   	pop    %rbp
  404c3d:	41 5c                	pop    %r12
  404c3f:	c3                   	ret    
  404c40:	be 02 01 00 00       	mov    $0x102,%esi
  404c45:	e9 96 cb ff ff       	jmp    4017e0 <dlopen@plt>
  404c4a:	66 0f 1f 44 00 00    	nopw   0x0(%rax,%rax,1)
  404c50:	80 bf 78 20 00 00 00 	cmpb   $0x0,0x2078(%rdi)
  404c57:	75 0f                	jne    404c68 <dlerror@plt+0x3328>
  404c59:	48 81 c7 78 10 00 00 	add    $0x1078,%rdi
  404c60:	e9 7b f9 ff ff       	jmp    4045e0 <dlerror@plt+0x2ca0>
  404c65:	0f 1f 00             	nopl   (%rax)
  404c68:	48 81 c7 78 20 00 00 	add    $0x2078,%rdi
  404c6f:	e9 6c f9 ff ff       	jmp    4045e0 <dlerror@plt+0x2ca0>
  404c74:	66 66 66 2e 0f 1f 84 	data16 data16 cs nopw 0x0(%rax,%rax,1)
  404c7b:	00 00 00 00 00 
  404c80:	48 83 ec 28          	sub    $0x28,%rsp
  404c84:	bf c3 61 40 00       	mov    $0x4061c3,%edi
  404c89:	e8 22 f9 ff ff       	call   4045b0 <dlerror@plt+0x2c70>
  404c8e:	48 89 c2             	mov    %rax,%rdx
  404c91:	31 c0                	xor    %eax,%eax
  404c93:	48 85 d2             	test   %rdx,%rdx
  404c96:	74 39                	je     404cd1 <dlerror@plt+0x3391>
  404c98:	e8 53 c9 ff ff       	call   4015f0 <getpid@plt>
  404c9d:	ba 01 00 00 00       	mov    $0x1,%edx
  404ca2:	4c 63 c8             	movslq %eax,%r9
  404ca5:	be 17 00 00 00       	mov    $0x17,%esi
  404caa:	48 89 e7             	mov    %rsp,%rdi
  404cad:	41 b8 ce 61 40 00    	mov    $0x4061ce,%r8d
  404cb3:	b9 17 00 00 00       	mov    $0x17,%ecx
  404cb8:	31 c0                	xor    %eax,%eax
  404cba:	e8 51 c8 ff ff       	call   401510 <__snprintf_chk@plt>
  404cbf:	ba 01 00 00 00       	mov    $0x1,%edx
  404cc4:	48 89 e6             	mov    %rsp,%rsi
  404cc7:	bf c3 61 40 00       	mov    $0x4061c3,%edi
  404ccc:	e8 0f c9 ff ff       	call   4015e0 <setenv@plt>
  404cd1:	48 83 c4 28          	add    $0x28,%rsp
  404cd5:	c3                   	ret    
  404cd6:	66 2e 0f 1f 84 00 00 	cs nopw 0x0(%rax,%rax,1)
  404cdd:	00 00 00 
  404ce0:	41 57                	push   %r15
  404ce2:	49 89 ff             	mov    %rdi,%r15
  404ce5:	41 56                	push   %r14
  404ce7:	8d 7a 01             	lea    0x1(%rdx),%edi
  404cea:	41 55                	push   %r13
  404cec:	41 54                	push   %r12
  404cee:	55                   	push   %rbp
  404cef:	53                   	push   %rbx
  404cf0:	89 d5                	mov    %edx,%ebp
  404cf2:	49 89 f6             	mov    %rsi,%r14
  404cf5:	48 63 ff             	movslq %edi,%rdi
  404cf8:	be 08 00 00 00       	mov    $0x8,%esi
  404cfd:	48 83 ec 18          	sub    $0x18,%rsp
  404d01:	49 89 cd             	mov    %rcx,%r13
  404d04:	c7 44 24 0c 00 00 00 	movl   $0x0,0xc(%rsp)
  404d0b:	00 
  404d0c:	e8 df c9 ff ff       	call   4016f0 <calloc@plt>
  404d11:	85 ed                	test   %ebp,%ebp
  404d13:	49 89 c4             	mov    %rax,%r12
  404d16:	48 89 05 33 0d 21 00 	mov    %rax,0x210d33(%rip)        # 615a50 <stderr@GLIBC_2.2.5+0xe280>
  404d1d:	c7 05 25 0d 21 00 00 	movl   $0x0,0x210d25(%rip)        # 615a4c <stderr@GLIBC_2.2.5+0xe27c>
  404d24:	00 00 00 
  404d27:	7e 2f                	jle    404d58 <dlerror@plt+0x3418>
  404d29:	83 ed 01             	sub    $0x1,%ebp
  404d2c:	31 db                	xor    %ebx,%ebx
  404d2e:	48 83 c5 01          	add    $0x1,%rbp
  404d32:	66 0f 1f 44 00 00    	nopw   0x0(%rax,%rax,1)
  404d38:	49 8b 7c dd 00       	mov    0x0(%r13,%rbx,8),%rdi
  404d3d:	8d 43 01             	lea    0x1(%rbx),%eax
  404d40:	89 05 06 0d 21 00    	mov    %eax,0x210d06(%rip)        # 615a4c <stderr@GLIBC_2.2.5+0xe27c>
  404d46:	e8 75 c9 ff ff       	call   4016c0 <__strdup@plt>
  404d4b:	49 89 04 dc          	mov    %rax,(%r12,%rbx,8)
  404d4f:	48 83 c3 01          	add    $0x1,%rbx
  404d53:	48 39 eb             	cmp    %rbp,%rbx
  404d56:	75 e0                	jne    404d38 <dlerror@plt+0x33f8>
  404d58:	e8 d3 cb ff ff       	call   401930 <fork@plt>
  404d5d:	85 c0                	test   %eax,%eax
  404d5f:	89 c3                	mov    %eax,%ebx
  404d61:	0f 88 31 01 00 00    	js     404e98 <dlerror@plt+0x3558>
  404d67:	0f 84 e0 00 00 00    	je     404e4d <dlerror@plt+0x350d>
  404d6d:	be d2 61 40 00       	mov    $0x4061d2,%esi
  404d72:	4c 89 f7             	mov    %r14,%rdi
  404d75:	89 1d cd 0c 21 00    	mov    %ebx,0x210ccd(%rip)        # 615a48 <stderr@GLIBC_2.2.5+0xe278>
  404d7b:	bd 70 44 40 00       	mov    $0x404470,%ebp
  404d80:	e8 ab d3 ff ff       	call   402130 <dlerror@plt+0x7f0>
  404d85:	48 85 c0             	test   %rax,%rax
  404d88:	b8 60 44 40 00       	mov    $0x404460,%eax
  404d8d:	48 0f 45 e8          	cmovne %rax,%rbp
  404d91:	31 db                	xor    %ebx,%ebx
  404d93:	0f 1f 44 00 00       	nopl   0x0(%rax,%rax,1)
  404d98:	83 fb 14             	cmp    $0x14,%ebx
  404d9b:	74 0f                	je     404dac <dlerror@plt+0x346c>
  404d9d:	83 fb 11             	cmp    $0x11,%ebx
  404da0:	74 0a                	je     404dac <dlerror@plt+0x346c>
  404da2:	48 89 ee             	mov    %rbp,%rsi
  404da5:	89 df                	mov    %ebx,%edi
  404da7:	e8 64 c9 ff ff       	call   401710 <signal@plt>
  404dac:	83 c3 01             	add    $0x1,%ebx
  404daf:	83 fb 41             	cmp    $0x41,%ebx
  404db2:	75 e4                	jne    404d98 <dlerror@plt+0x3458>
  404db4:	8b 3d 8e 0c 21 00    	mov    0x210c8e(%rip),%edi        # 615a48 <stderr@GLIBC_2.2.5+0xe278>
  404dba:	48 8d 74 24 0c       	lea    0xc(%rsp),%rsi
  404dbf:	31 d2                	xor    %edx,%edx
  404dc1:	31 db                	xor    %ebx,%ebx
  404dc3:	e8 c8 ca ff ff       	call   401890 <waitpid@plt>
  404dc8:	41 89 c5             	mov    %eax,%r13d
  404dcb:	0f 1f 44 00 00       	nopl   0x0(%rax,%rax,1)
  404dd0:	31 f6                	xor    %esi,%esi
  404dd2:	89 df                	mov    %ebx,%edi
  404dd4:	83 c3 01             	add    $0x1,%ebx
  404dd7:	e8 34 c9 ff ff       	call   401710 <signal@plt>
  404ddc:	83 fb 41             	cmp    $0x41,%ebx
  404ddf:	75 ef                	jne    404dd0 <dlerror@plt+0x3490>
  404de1:	44 8b 25 64 0c 21 00 	mov    0x210c64(%rip),%r12d        # 615a4c <stderr@GLIBC_2.2.5+0xe27c>
  404de8:	48 8b 2d 61 0c 21 00 	mov    0x210c61(%rip),%rbp        # 615a50 <stderr@GLIBC_2.2.5+0xe280>
  404def:	45 85 e4             	test   %r12d,%r12d
  404df2:	7e 1f                	jle    404e13 <dlerror@plt+0x34d3>
  404df4:	31 db                	xor    %ebx,%ebx
  404df6:	66 2e 0f 1f 84 00 00 	cs nopw 0x0(%rax,%rax,1)
  404dfd:	00 00 00 
  404e00:	48 8b 7c dd 00       	mov    0x0(%rbp,%rbx,8),%rdi
  404e05:	48 83 c3 01          	add    $0x1,%rbx
  404e09:	e8 22 c7 ff ff       	call   401530 <free@plt>
  404e0e:	41 39 dc             	cmp    %ebx,%r12d
  404e11:	7f ed                	jg     404e00 <dlerror@plt+0x34c0>
  404e13:	48 89 ef             	mov    %rbp,%rdi
  404e16:	e8 15 c7 ff ff       	call   401530 <free@plt>
  404e1b:	45 85 ed             	test   %r13d,%r13d
  404e1e:	78 6c                	js     404e8c <dlerror@plt+0x354c>
  404e20:	8b 44 24 0c          	mov    0xc(%rsp),%eax
  404e24:	89 c7                	mov    %eax,%edi
  404e26:	83 e7 7f             	and    $0x7f,%edi
  404e29:	74 68                	je     404e93 <dlerror@plt+0x3553>
  404e2b:	8d 47 01             	lea    0x1(%rdi),%eax
  404e2e:	bb 01 00 00 00       	mov    $0x1,%ebx
  404e33:	3c 01                	cmp    $0x1,%al
  404e35:	7e 05                	jle    404e3c <dlerror@plt+0x34fc>
  404e37:	e8 e4 c6 ff ff       	call   401520 <raise@plt>
  404e3c:	48 83 c4 18          	add    $0x18,%rsp
  404e40:	89 d8                	mov    %ebx,%eax
  404e42:	5b                   	pop    %rbx
  404e43:	5d                   	pop    %rbp
  404e44:	41 5c                	pop    %r12
  404e46:	41 5d                	pop    %r13
  404e48:	41 5e                	pop    %r14
  404e4a:	41 5f                	pop    %r15
  404e4c:	c3                   	ret    
  404e4d:	31 c0                	xor    %eax,%eax
  404e4f:	e8 2c fe ff ff       	call   404c80 <dlerror@plt+0x3340>
  404e54:	48 8b 2d f5 0b 21 00 	mov    0x210bf5(%rip),%rbp        # 615a50 <stderr@GLIBC_2.2.5+0xe280>
  404e5b:	4c 89 ff             	mov    %r15,%rdi
  404e5e:	48 89 ee             	mov    %rbp,%rsi
  404e61:	e8 7a ca ff ff       	call   4018e0 <execvp@plt>
  404e66:	85 c0                	test   %eax,%eax
  404e68:	0f 89 ff fe ff ff    	jns    404d6d <dlerror@plt+0x342d>
  404e6e:	44 8b 25 d7 0b 21 00 	mov    0x210bd7(%rip),%r12d        # 615a4c <stderr@GLIBC_2.2.5+0xe27c>
  404e75:	41 bd ff ff ff ff    	mov    $0xffffffff,%r13d
  404e7b:	45 85 e4             	test   %r12d,%r12d
  404e7e:	0f 8f 70 ff ff ff    	jg     404df4 <dlerror@plt+0x34b4>
  404e84:	48 89 ef             	mov    %rbp,%rdi
  404e87:	e8 a4 c6 ff ff       	call   401530 <free@plt>
  404e8c:	bb 01 00 00 00       	mov    $0x1,%ebx
  404e91:	eb a9                	jmp    404e3c <dlerror@plt+0x34fc>
  404e93:	0f b6 dc             	movzbl %ah,%ebx
  404e96:	eb a4                	jmp    404e3c <dlerror@plt+0x34fc>
  404e98:	48 8b 2d b1 0b 21 00 	mov    0x210bb1(%rip),%rbp        # 615a50 <stderr@GLIBC_2.2.5+0xe280>
  404e9f:	eb cd                	jmp    404e6e <dlerror@plt+0x352e>
  404ea1:	66 2e 0f 1f 84 00 00 	cs nopw 0x0(%rax,%rax,1)
  404ea8:	00 00 00 
  404eab:	0f 1f 44 00 00       	nopl   0x0(%rax,%rax,1)
  404eb0:	41 57                	push   %r15
  404eb2:	41 89 ff             	mov    %edi,%r15d
  404eb5:	41 56                	push   %r14
  404eb7:	49 89 f6             	mov    %rsi,%r14
  404eba:	41 55                	push   %r13
  404ebc:	49 89 d5             	mov    %rdx,%r13
  404ebf:	41 54                	push   %r12
  404ec1:	4c 8d 25 78 24 20 00 	lea    0x202478(%rip),%r12        # 607340 <dlerror@plt+0x205a00>
  404ec8:	55                   	push   %rbp
  404ec9:	48 8d 2d 78 24 20 00 	lea    0x202478(%rip),%rbp        # 607348 <dlerror@plt+0x205a08>
  404ed0:	53                   	push   %rbx
  404ed1:	4c 29 e5             	sub    %r12,%rbp
  404ed4:	31 db                	xor    %ebx,%ebx
  404ed6:	48 c1 fd 03          	sar    $0x3,%rbp
  404eda:	48 83 ec 08          	sub    $0x8,%rsp
  404ede:	e8 dd c5 ff ff       	call   4014c0 <__strcat_chk@plt-0x30>
  404ee3:	48 85 ed             	test   %rbp,%rbp
  404ee6:	74 1e                	je     404f06 <dlerror@plt+0x35c6>
  404ee8:	0f 1f 84 00 00 00 00 	nopl   0x0(%rax,%rax,1)
  404eef:	00 
  404ef0:	4c 89 ea             	mov    %r13,%rdx
  404ef3:	4c 89 f6             	mov    %r14,%rsi
  404ef6:	44 89 ff             	mov    %r15d,%edi
  404ef9:	41 ff 14 dc          	call   *(%r12,%rbx,8)
  404efd:	48 83 c3 01          	add    $0x1,%rbx
  404f01:	48 39 eb             	cmp    %rbp,%rbx
  404f04:	75 ea                	jne    404ef0 <dlerror@plt+0x35b0>
  404f06:	48 83 c4 08          	add    $0x8,%rsp
  404f0a:	5b                   	pop    %rbx
  404f0b:	5d                   	pop    %rbp
  404f0c:	41 5c                	pop    %r12
  404f0e:	41 5d                	pop    %r13
  404f10:	41 5e                	pop    %r14
  404f12:	41 5f                	pop    %r15
  404f14:	c3                   	ret    
  404f15:	66 66 2e 0f 1f 84 00 	data16 cs nopw 0x0(%rax,%rax,1)
  404f1c:	00 00 00 00 
  404f20:	f3 c3                	repz ret 

Disassembly of section .fini:

0000000000404f24 <.fini>:
  404f24:	48 83 ec 08          	sub    $0x8,%rsp
  404f28:	48 83 c4 08          	add    $0x8,%rsp
  404f2c:	c3                   	ret    
